	.section	__TEXT,__text,regular,pure_instructions
	.build_version macos, 13, 1	sdk_version 13, 1
	.globl	_main                           ; -- Begin function main
	.p2align	2
_main:                                  ; @main
Lfunc_begin0:
	.cfi_startproc
	.cfi_personality 155, ___gxx_personality_v0
	.cfi_lsda 16, Lexception0
; %bb.0:
	sub	sp, sp, #208
	stp	x29, x30, [sp, #192]            ; 16-byte Folded Spill
	add	x29, sp, #192
	.cfi_def_cfa w29, 16
	.cfi_offset w30, -8
	.cfi_offset w29, -16
	stur	wzr, [x29, #-4]
	stur	w0, [x29, #-8]
	stur	x1, [x29, #-16]
	sub	x0, x29, #48
	bl	__ZN6personC1Ev
Ltmp0:
	mov	x0, #32
	bl	__Znwm
	str	x0, [sp, #56]                   ; 8-byte Folded Spill
Ltmp1:
	b	LBB0_1
LBB0_1:
	ldr	x0, [sp, #56]                   ; 8-byte Folded Reload
	movi.2d	v0, #0000000000000000
	str	q0, [x0]
	str	q0, [x0, #16]
Ltmp2:
	bl	__ZN6personC1Ev
Ltmp3:
	b	LBB0_2
LBB0_2:
	ldr	x8, [sp, #56]                   ; 8-byte Folded Reload
	stur	x8, [x29, #-56]
	ldur	x0, [x29, #-56]
Ltmp5:
	adrp	x1, l_.str@PAGE
	add	x1, x1, l_.str@PAGEOFF
	bl	__ZNSt3__112basic_stringIcNS_11char_traitsIcEENS_9allocatorIcEEEaSEPKc
Ltmp6:
	b	LBB0_3
LBB0_3:
	ldur	x9, [x29, #-56]
	mov	w8, #32
	str	w8, [x9, #24]
	ldur	x9, [x29, #-56]
	mov	w8, #12
	str	w8, [x9, #28]
	ldur	x1, [x29, #-56]
Ltmp7:
	adrp	x0, __ZNSt3__14coutE@GOTPAGE
	ldr	x0, [x0, __ZNSt3__14coutE@GOTPAGEOFF]
	bl	__ZNSt3__1lsIcNS_11char_traitsIcEENS_9allocatorIcEEEERNS_13basic_ostreamIT_T0_EES9_RKNS_12basic_stringIS6_S7_T1_EE
	str	x0, [sp, #48]                   ; 8-byte Folded Spill
Ltmp8:
	b	LBB0_4
LBB0_4:
Ltmp9:
	ldr	x0, [sp, #48]                   ; 8-byte Folded Reload
	adrp	x1, __ZNSt3__14endlIcNS_11char_traitsIcEEEERNS_13basic_ostreamIT_T0_EES7_@GOTPAGE
	ldr	x1, [x1, __ZNSt3__14endlIcNS_11char_traitsIcEEEERNS_13basic_ostreamIT_T0_EES7_@GOTPAGEOFF]
	bl	__ZNSt3__113basic_ostreamIcNS_11char_traitsIcEEElsEPFRS3_S4_E
Ltmp10:
	b	LBB0_5
LBB0_5:
Ltmp11:
	add	x0, sp, #96
	adrp	x1, l_.str.1@PAGE
	add	x1, x1, l_.str.1@PAGEOFF
	bl	__ZNSt3__112basic_stringIcNS_11char_traitsIcEENS_9allocatorIcEEEC1INS_9nullptr_tEEEPKc
Ltmp12:
	b	LBB0_6
LBB0_6:
	mov	w8, #45
	str	w8, [sp, #92]
	mov	w8, #10
	str	w8, [sp, #88]
Ltmp13:
	sub	x0, x29, #48
	adrp	x1, l_.str.2@PAGE
	add	x1, x1, l_.str.2@PAGEOFF
	bl	__ZNSt3__112basic_stringIcNS_11char_traitsIcEENS_9allocatorIcEEEaSEPKc
Ltmp14:
	b	LBB0_7
LBB0_7:
	sub	x1, x29, #48
	mov	w8, #24
	stur	w8, [x29, #-24]
	mov	w8, #1
	stur	w8, [x29, #-20]
Ltmp15:
	adrp	x0, __ZNSt3__14coutE@GOTPAGE
	ldr	x0, [x0, __ZNSt3__14coutE@GOTPAGEOFF]
	bl	__ZNSt3__1lsIcNS_11char_traitsIcEENS_9allocatorIcEEEERNS_13basic_ostreamIT_T0_EES9_RKNS_12basic_stringIS6_S7_T1_EE
	str	x0, [sp, #40]                   ; 8-byte Folded Spill
Ltmp16:
	b	LBB0_8
LBB0_8:
Ltmp17:
	ldr	x0, [sp, #40]                   ; 8-byte Folded Reload
	adrp	x1, l_.str.3@PAGE
	add	x1, x1, l_.str.3@PAGEOFF
	bl	__ZNSt3__1lsINS_11char_traitsIcEEEERNS_13basic_ostreamIcT_EES6_PKc
	str	x0, [sp, #32]                   ; 8-byte Folded Spill
Ltmp18:
	b	LBB0_9
LBB0_9:
	ldr	x0, [sp, #32]                   ; 8-byte Folded Reload
	ldur	w1, [x29, #-24]
Ltmp19:
	bl	__ZNSt3__113basic_ostreamIcNS_11char_traitsIcEEElsEi
	str	x0, [sp, #24]                   ; 8-byte Folded Spill
Ltmp20:
	b	LBB0_10
LBB0_10:
Ltmp21:
	ldr	x0, [sp, #24]                   ; 8-byte Folded Reload
	adrp	x1, l_.str.4@PAGE
	add	x1, x1, l_.str.4@PAGEOFF
	bl	__ZNSt3__1lsINS_11char_traitsIcEEEERNS_13basic_ostreamIcT_EES6_PKc
	str	x0, [sp, #16]                   ; 8-byte Folded Spill
Ltmp22:
	b	LBB0_11
LBB0_11:
	ldr	x0, [sp, #16]                   ; 8-byte Folded Reload
	ldur	w1, [x29, #-20]
Ltmp23:
	bl	__ZNSt3__113basic_ostreamIcNS_11char_traitsIcEEElsEi
	str	x0, [sp, #8]                    ; 8-byte Folded Spill
Ltmp24:
	b	LBB0_12
LBB0_12:
Ltmp25:
	ldr	x0, [sp, #8]                    ; 8-byte Folded Reload
	adrp	x1, __ZNSt3__14endlIcNS_11char_traitsIcEEEERNS_13basic_ostreamIT_T0_EES7_@GOTPAGE
	ldr	x1, [x1, __ZNSt3__14endlIcNS_11char_traitsIcEEEERNS_13basic_ostreamIT_T0_EES7_@GOTPAGEOFF]
	bl	__ZNSt3__113basic_ostreamIcNS_11char_traitsIcEEElsEPFRS3_S4_E
Ltmp26:
	b	LBB0_13
LBB0_13:
	ldur	x8, [x29, #-56]
	str	x8, [sp]                        ; 8-byte Folded Spill
Ltmp27:
	add	x0, sp, #64
	add	x1, sp, #96
	bl	__ZNSt3__112basic_stringIcNS_11char_traitsIcEENS_9allocatorIcEEEC1ERKS5_
Ltmp28:
	b	LBB0_14
LBB0_14:
	ldr	x0, [sp]                        ; 8-byte Folded Reload
	ldr	w2, [sp, #92]
	ldr	w3, [sp, #88]
Ltmp29:
	add	x1, sp, #64
	bl	__ZN6person8printingENSt3__112basic_stringIcNS0_11char_traitsIcEENS0_9allocatorIcEEEEii
Ltmp30:
	b	LBB0_15
LBB0_15:
Ltmp34:
	add	x0, sp, #64
	bl	__ZNSt3__112basic_stringIcNS_11char_traitsIcEENS_9allocatorIcEEED1Ev
Ltmp35:
	b	LBB0_16
LBB0_16:
	stur	wzr, [x29, #-4]
Ltmp39:
	add	x0, sp, #96
	bl	__ZNSt3__112basic_stringIcNS_11char_traitsIcEENS_9allocatorIcEEED1Ev
Ltmp40:
	b	LBB0_22
LBB0_17:
Ltmp41:
	mov	x8, x1
	stur	x0, [x29, #-64]
	stur	w8, [x29, #-68]
	b	LBB0_25
LBB0_18:
Ltmp4:
	mov	x9, x0
	ldr	x0, [sp, #56]                   ; 8-byte Folded Reload
	mov	x8, x1
	stur	x9, [x29, #-64]
	stur	w8, [x29, #-68]
	bl	__ZdlPv
	b	LBB0_25
LBB0_19:
Ltmp36:
	mov	x8, x1
	stur	x0, [x29, #-64]
	stur	w8, [x29, #-68]
	b	LBB0_23
LBB0_20:
Ltmp31:
	mov	x8, x1
	stur	x0, [x29, #-64]
	stur	w8, [x29, #-68]
Ltmp32:
	add	x0, sp, #64
	bl	__ZNSt3__112basic_stringIcNS_11char_traitsIcEENS_9allocatorIcEEED1Ev
Ltmp33:
	b	LBB0_21
LBB0_21:
	b	LBB0_23
LBB0_22:
	sub	x0, x29, #48
	bl	__ZN6personD1Ev
	ldur	w0, [x29, #-4]
	ldp	x29, x30, [sp, #192]            ; 16-byte Folded Reload
	add	sp, sp, #208
	ret
LBB0_23:
Ltmp37:
	add	x0, sp, #96
	bl	__ZNSt3__112basic_stringIcNS_11char_traitsIcEENS_9allocatorIcEEED1Ev
Ltmp38:
	b	LBB0_24
LBB0_24:
	b	LBB0_25
LBB0_25:
Ltmp42:
	sub	x0, x29, #48
	bl	__ZN6personD1Ev
Ltmp43:
	b	LBB0_26
LBB0_26:
	b	LBB0_27
LBB0_27:
	ldur	x0, [x29, #-64]
	bl	__Unwind_Resume
LBB0_28:
Ltmp44:
	bl	___clang_call_terminate
Lfunc_end0:
	.cfi_endproc
	.section	__TEXT,__gcc_except_tab
	.p2align	2
GCC_except_table0:
Lexception0:
	.byte	255                             ; @LPStart Encoding = omit
	.byte	155                             ; @TType Encoding = indirect pcrel sdata4
	.uleb128 Lttbase0-Lttbaseref0
Lttbaseref0:
	.byte	1                               ; Call site Encoding = uleb128
	.uleb128 Lcst_end0-Lcst_begin0
Lcst_begin0:
	.uleb128 Lfunc_begin0-Lfunc_begin0      ; >> Call Site 1 <<
	.uleb128 Ltmp0-Lfunc_begin0             ;   Call between Lfunc_begin0 and Ltmp0
	.byte	0                               ;     has no landing pad
	.byte	0                               ;   On action: cleanup
	.uleb128 Ltmp0-Lfunc_begin0             ; >> Call Site 2 <<
	.uleb128 Ltmp1-Ltmp0                    ;   Call between Ltmp0 and Ltmp1
	.uleb128 Ltmp41-Lfunc_begin0            ;     jumps to Ltmp41
	.byte	0                               ;   On action: cleanup
	.uleb128 Ltmp2-Lfunc_begin0             ; >> Call Site 3 <<
	.uleb128 Ltmp3-Ltmp2                    ;   Call between Ltmp2 and Ltmp3
	.uleb128 Ltmp4-Lfunc_begin0             ;     jumps to Ltmp4
	.byte	0                               ;   On action: cleanup
	.uleb128 Ltmp5-Lfunc_begin0             ; >> Call Site 4 <<
	.uleb128 Ltmp12-Ltmp5                   ;   Call between Ltmp5 and Ltmp12
	.uleb128 Ltmp41-Lfunc_begin0            ;     jumps to Ltmp41
	.byte	0                               ;   On action: cleanup
	.uleb128 Ltmp13-Lfunc_begin0            ; >> Call Site 5 <<
	.uleb128 Ltmp28-Ltmp13                  ;   Call between Ltmp13 and Ltmp28
	.uleb128 Ltmp36-Lfunc_begin0            ;     jumps to Ltmp36
	.byte	0                               ;   On action: cleanup
	.uleb128 Ltmp29-Lfunc_begin0            ; >> Call Site 6 <<
	.uleb128 Ltmp30-Ltmp29                  ;   Call between Ltmp29 and Ltmp30
	.uleb128 Ltmp31-Lfunc_begin0            ;     jumps to Ltmp31
	.byte	0                               ;   On action: cleanup
	.uleb128 Ltmp34-Lfunc_begin0            ; >> Call Site 7 <<
	.uleb128 Ltmp35-Ltmp34                  ;   Call between Ltmp34 and Ltmp35
	.uleb128 Ltmp36-Lfunc_begin0            ;     jumps to Ltmp36
	.byte	0                               ;   On action: cleanup
	.uleb128 Ltmp39-Lfunc_begin0            ; >> Call Site 8 <<
	.uleb128 Ltmp40-Ltmp39                  ;   Call between Ltmp39 and Ltmp40
	.uleb128 Ltmp41-Lfunc_begin0            ;     jumps to Ltmp41
	.byte	0                               ;   On action: cleanup
	.uleb128 Ltmp32-Lfunc_begin0            ; >> Call Site 9 <<
	.uleb128 Ltmp33-Ltmp32                  ;   Call between Ltmp32 and Ltmp33
	.uleb128 Ltmp44-Lfunc_begin0            ;     jumps to Ltmp44
	.byte	1                               ;   On action: 1
	.uleb128 Ltmp33-Lfunc_begin0            ; >> Call Site 10 <<
	.uleb128 Ltmp37-Ltmp33                  ;   Call between Ltmp33 and Ltmp37
	.byte	0                               ;     has no landing pad
	.byte	0                               ;   On action: cleanup
	.uleb128 Ltmp37-Lfunc_begin0            ; >> Call Site 11 <<
	.uleb128 Ltmp43-Ltmp37                  ;   Call between Ltmp37 and Ltmp43
	.uleb128 Ltmp44-Lfunc_begin0            ;     jumps to Ltmp44
	.byte	1                               ;   On action: 1
	.uleb128 Ltmp43-Lfunc_begin0            ; >> Call Site 12 <<
	.uleb128 Lfunc_end0-Ltmp43              ;   Call between Ltmp43 and Lfunc_end0
	.byte	0                               ;     has no landing pad
	.byte	0                               ;   On action: cleanup
Lcst_end0:
	.byte	1                               ; >> Action Record 1 <<
                                        ;   Catch TypeInfo 1
	.byte	0                               ;   No further actions
	.p2align	2
                                        ; >> Catch TypeInfos <<
	.long	0                               ; TypeInfo 1
Lttbase0:
	.p2align	2
                                        ; -- End function
	.section	__TEXT,__text,regular,pure_instructions
	.globl	__ZN6personC1Ev                 ; -- Begin function _ZN6personC1Ev
	.weak_def_can_be_hidden	__ZN6personC1Ev
	.p2align	2
__ZN6personC1Ev:                        ; @_ZN6personC1Ev
	.cfi_startproc
; %bb.0:
	sub	sp, sp, #32
	stp	x29, x30, [sp, #16]             ; 16-byte Folded Spill
	add	x29, sp, #16
	.cfi_def_cfa w29, 16
	.cfi_offset w30, -8
	.cfi_offset w29, -16
	str	x0, [sp, #8]
	ldr	x0, [sp, #8]
	str	x0, [sp]                        ; 8-byte Folded Spill
	bl	__ZN6personC2Ev
	ldr	x0, [sp]                        ; 8-byte Folded Reload
	ldp	x29, x30, [sp, #16]             ; 16-byte Folded Reload
	add	sp, sp, #32
	ret
	.cfi_endproc
                                        ; -- End function
	.p2align	2                               ; -- Begin function _ZNSt3__112basic_stringIcNS_11char_traitsIcEENS_9allocatorIcEEEaSEPKc
__ZNSt3__112basic_stringIcNS_11char_traitsIcEENS_9allocatorIcEEEaSEPKc: ; @_ZNSt3__112basic_stringIcNS_11char_traitsIcEENS_9allocatorIcEEEaSEPKc
	.cfi_startproc
; %bb.0:
	sub	sp, sp, #32
	stp	x29, x30, [sp, #16]             ; 16-byte Folded Spill
	add	x29, sp, #16
	.cfi_def_cfa w29, 16
	.cfi_offset w30, -8
	.cfi_offset w29, -16
	str	x0, [sp, #8]
	str	x1, [sp]
	ldr	x0, [sp, #8]
	ldr	x1, [sp]
	bl	__ZNSt3__112basic_stringIcNS_11char_traitsIcEENS_9allocatorIcEEE6assignEPKc
	ldp	x29, x30, [sp, #16]             ; 16-byte Folded Reload
	add	sp, sp, #32
	ret
	.cfi_endproc
                                        ; -- End function
	.globl	__ZNSt3__1lsIcNS_11char_traitsIcEENS_9allocatorIcEEEERNS_13basic_ostreamIT_T0_EES9_RKNS_12basic_stringIS6_S7_T1_EE ; -- Begin function _ZNSt3__1lsIcNS_11char_traitsIcEENS_9allocatorIcEEEERNS_13basic_ostreamIT_T0_EES9_RKNS_12basic_stringIS6_S7_T1_EE
	.weak_definition	__ZNSt3__1lsIcNS_11char_traitsIcEENS_9allocatorIcEEEERNS_13basic_ostreamIT_T0_EES9_RKNS_12basic_stringIS6_S7_T1_EE
	.p2align	2
__ZNSt3__1lsIcNS_11char_traitsIcEENS_9allocatorIcEEEERNS_13basic_ostreamIT_T0_EES9_RKNS_12basic_stringIS6_S7_T1_EE: ; @_ZNSt3__1lsIcNS_11char_traitsIcEENS_9allocatorIcEEEERNS_13basic_ostreamIT_T0_EES9_RKNS_12basic_stringIS6_S7_T1_EE
	.cfi_startproc
; %bb.0:
	sub	sp, sp, #48
	stp	x29, x30, [sp, #32]             ; 16-byte Folded Spill
	add	x29, sp, #32
	.cfi_def_cfa w29, 16
	.cfi_offset w30, -8
	.cfi_offset w29, -16
	stur	x0, [x29, #-8]
	str	x1, [sp, #16]
	ldur	x8, [x29, #-8]
	str	x8, [sp, #8]                    ; 8-byte Folded Spill
	ldr	x0, [sp, #16]
	bl	__ZNKSt3__112basic_stringIcNS_11char_traitsIcEENS_9allocatorIcEEE4dataEv
	str	x0, [sp]                        ; 8-byte Folded Spill
	ldr	x0, [sp, #16]
	bl	__ZNKSt3__112basic_stringIcNS_11char_traitsIcEENS_9allocatorIcEEE4sizeEv
	ldr	x1, [sp]                        ; 8-byte Folded Reload
	mov	x2, x0
	ldr	x0, [sp, #8]                    ; 8-byte Folded Reload
	bl	__ZNSt3__124__put_character_sequenceIcNS_11char_traitsIcEEEERNS_13basic_ostreamIT_T0_EES7_PKS4_m
	ldp	x29, x30, [sp, #32]             ; 16-byte Folded Reload
	add	sp, sp, #48
	ret
	.cfi_endproc
                                        ; -- End function
	.p2align	2                               ; -- Begin function _ZNSt3__113basic_ostreamIcNS_11char_traitsIcEEElsEPFRS3_S4_E
__ZNSt3__113basic_ostreamIcNS_11char_traitsIcEEElsEPFRS3_S4_E: ; @_ZNSt3__113basic_ostreamIcNS_11char_traitsIcEEElsEPFRS3_S4_E
	.cfi_startproc
; %bb.0:
	sub	sp, sp, #32
	stp	x29, x30, [sp, #16]             ; 16-byte Folded Spill
	add	x29, sp, #16
	.cfi_def_cfa w29, 16
	.cfi_offset w30, -8
	.cfi_offset w29, -16
	str	x0, [sp, #8]
	str	x1, [sp]
	ldr	x0, [sp, #8]
	ldr	x8, [sp]
	blr	x8
	ldp	x29, x30, [sp, #16]             ; 16-byte Folded Reload
	add	sp, sp, #32
	ret
	.cfi_endproc
                                        ; -- End function
	.globl	__ZNSt3__14endlIcNS_11char_traitsIcEEEERNS_13basic_ostreamIT_T0_EES7_ ; -- Begin function _ZNSt3__14endlIcNS_11char_traitsIcEEEERNS_13basic_ostreamIT_T0_EES7_
	.weak_definition	__ZNSt3__14endlIcNS_11char_traitsIcEEEERNS_13basic_ostreamIT_T0_EES7_
	.p2align	2
__ZNSt3__14endlIcNS_11char_traitsIcEEEERNS_13basic_ostreamIT_T0_EES7_: ; @_ZNSt3__14endlIcNS_11char_traitsIcEEEERNS_13basic_ostreamIT_T0_EES7_
	.cfi_startproc
; %bb.0:
	sub	sp, sp, #32
	stp	x29, x30, [sp, #16]             ; 16-byte Folded Spill
	add	x29, sp, #16
	.cfi_def_cfa w29, 16
	.cfi_offset w30, -8
	.cfi_offset w29, -16
	str	x0, [sp, #8]
	ldr	x8, [sp, #8]
	str	x8, [sp]                        ; 8-byte Folded Spill
	ldr	x8, [sp, #8]
	ldr	x9, [x8]
	ldur	x9, [x9, #-24]
	add	x0, x8, x9
	mov	w1, #10
	bl	__ZNKSt3__19basic_iosIcNS_11char_traitsIcEEE5widenEc
	mov	x8, x0
	ldr	x0, [sp]                        ; 8-byte Folded Reload
	sxtb	w1, w8
	bl	__ZNSt3__113basic_ostreamIcNS_11char_traitsIcEEE3putEc
	ldr	x0, [sp, #8]
	bl	__ZNSt3__113basic_ostreamIcNS_11char_traitsIcEEE5flushEv
	ldr	x0, [sp, #8]
	ldp	x29, x30, [sp, #16]             ; 16-byte Folded Reload
	add	sp, sp, #32
	ret
	.cfi_endproc
                                        ; -- End function
	.p2align	2                               ; -- Begin function _ZNSt3__112basic_stringIcNS_11char_traitsIcEENS_9allocatorIcEEEC1INS_9nullptr_tEEEPKc
__ZNSt3__112basic_stringIcNS_11char_traitsIcEENS_9allocatorIcEEEC1INS_9nullptr_tEEEPKc: ; @_ZNSt3__112basic_stringIcNS_11char_traitsIcEENS_9allocatorIcEEEC1INS_9nullptr_tEEEPKc
	.cfi_startproc
; %bb.0:
	sub	sp, sp, #48
	stp	x29, x30, [sp, #32]             ; 16-byte Folded Spill
	add	x29, sp, #32
	.cfi_def_cfa w29, 16
	.cfi_offset w30, -8
	.cfi_offset w29, -16
	stur	x0, [x29, #-8]
	str	x1, [sp, #16]
	ldur	x0, [x29, #-8]
	str	x0, [sp, #8]                    ; 8-byte Folded Spill
	ldr	x1, [sp, #16]
	bl	__ZNSt3__112basic_stringIcNS_11char_traitsIcEENS_9allocatorIcEEEC2INS_9nullptr_tEEEPKc
	ldr	x0, [sp, #8]                    ; 8-byte Folded Reload
	ldp	x29, x30, [sp, #32]             ; 16-byte Folded Reload
	add	sp, sp, #48
	ret
	.cfi_endproc
                                        ; -- End function
	.globl	__ZNSt3__1lsINS_11char_traitsIcEEEERNS_13basic_ostreamIcT_EES6_PKc ; -- Begin function _ZNSt3__1lsINS_11char_traitsIcEEEERNS_13basic_ostreamIcT_EES6_PKc
	.weak_definition	__ZNSt3__1lsINS_11char_traitsIcEEEERNS_13basic_ostreamIcT_EES6_PKc
	.p2align	2
__ZNSt3__1lsINS_11char_traitsIcEEEERNS_13basic_ostreamIcT_EES6_PKc: ; @_ZNSt3__1lsINS_11char_traitsIcEEEERNS_13basic_ostreamIcT_EES6_PKc
	.cfi_startproc
; %bb.0:
	sub	sp, sp, #48
	stp	x29, x30, [sp, #32]             ; 16-byte Folded Spill
	add	x29, sp, #32
	.cfi_def_cfa w29, 16
	.cfi_offset w30, -8
	.cfi_offset w29, -16
	stur	x0, [x29, #-8]
	str	x1, [sp, #16]
	ldur	x8, [x29, #-8]
	str	x8, [sp, #8]                    ; 8-byte Folded Spill
	ldr	x8, [sp, #16]
	str	x8, [sp]                        ; 8-byte Folded Spill
	ldr	x0, [sp, #16]
	bl	__ZNSt3__111char_traitsIcE6lengthEPKc
	ldr	x1, [sp]                        ; 8-byte Folded Reload
	mov	x2, x0
	ldr	x0, [sp, #8]                    ; 8-byte Folded Reload
	bl	__ZNSt3__124__put_character_sequenceIcNS_11char_traitsIcEEEERNS_13basic_ostreamIT_T0_EES7_PKS4_m
	ldp	x29, x30, [sp, #32]             ; 16-byte Folded Reload
	add	sp, sp, #48
	ret
	.cfi_endproc
                                        ; -- End function
	.globl	__ZN6person8printingENSt3__112basic_stringIcNS0_11char_traitsIcEENS0_9allocatorIcEEEEii ; -- Begin function _ZN6person8printingENSt3__112basic_stringIcNS0_11char_traitsIcEENS0_9allocatorIcEEEEii
	.weak_definition	__ZN6person8printingENSt3__112basic_stringIcNS0_11char_traitsIcEENS0_9allocatorIcEEEEii
	.p2align	2
__ZN6person8printingENSt3__112basic_stringIcNS0_11char_traitsIcEENS0_9allocatorIcEEEEii: ; @_ZN6person8printingENSt3__112basic_stringIcNS0_11char_traitsIcEENS0_9allocatorIcEEEEii
	.cfi_startproc
; %bb.0:
	sub	sp, sp, #32
	stp	x29, x30, [sp, #16]             ; 16-byte Folded Spill
	add	x29, sp, #16
	.cfi_def_cfa w29, 16
	.cfi_offset w30, -8
	.cfi_offset w29, -16
	str	x0, [sp, #8]
	str	w2, [sp, #4]
	str	w3, [sp]
	adrp	x0, __ZNSt3__14coutE@GOTPAGE
	ldr	x0, [x0, __ZNSt3__14coutE@GOTPAGEOFF]
	bl	__ZNSt3__1lsIcNS_11char_traitsIcEENS_9allocatorIcEEEERNS_13basic_ostreamIT_T0_EES9_RKNS_12basic_stringIS6_S7_T1_EE
	adrp	x1, l_.str.3@PAGE
	add	x1, x1, l_.str.3@PAGEOFF
	bl	__ZNSt3__1lsINS_11char_traitsIcEEEERNS_13basic_ostreamIcT_EES6_PKc
	ldr	w1, [sp, #4]
	bl	__ZNSt3__113basic_ostreamIcNS_11char_traitsIcEEElsEi
	adrp	x1, l_.str.4@PAGE
	add	x1, x1, l_.str.4@PAGEOFF
	bl	__ZNSt3__1lsINS_11char_traitsIcEEEERNS_13basic_ostreamIcT_EES6_PKc
	ldr	w1, [sp]
	bl	__ZNSt3__113basic_ostreamIcNS_11char_traitsIcEEElsEi
	adrp	x1, __ZNSt3__14endlIcNS_11char_traitsIcEEEERNS_13basic_ostreamIT_T0_EES7_@GOTPAGE
	ldr	x1, [x1, __ZNSt3__14endlIcNS_11char_traitsIcEEEERNS_13basic_ostreamIT_T0_EES7_@GOTPAGEOFF]
	bl	__ZNSt3__113basic_ostreamIcNS_11char_traitsIcEEElsEPFRS3_S4_E
	ldp	x29, x30, [sp, #16]             ; 16-byte Folded Reload
	add	sp, sp, #32
	ret
	.cfi_endproc
                                        ; -- End function
	.private_extern	___clang_call_terminate ; -- Begin function __clang_call_terminate
	.globl	___clang_call_terminate
	.weak_definition	___clang_call_terminate
	.p2align	2
___clang_call_terminate:                ; @__clang_call_terminate
; %bb.0:
	stp	x29, x30, [sp, #-16]!           ; 16-byte Folded Spill
	bl	___cxa_begin_catch
	bl	__ZSt9terminatev
                                        ; -- End function
	.globl	__ZN6personD1Ev                 ; -- Begin function _ZN6personD1Ev
	.weak_def_can_be_hidden	__ZN6personD1Ev
	.p2align	2
__ZN6personD1Ev:                        ; @_ZN6personD1Ev
	.cfi_startproc
; %bb.0:
	sub	sp, sp, #32
	stp	x29, x30, [sp, #16]             ; 16-byte Folded Spill
	add	x29, sp, #16
	.cfi_def_cfa w29, 16
	.cfi_offset w30, -8
	.cfi_offset w29, -16
	str	x0, [sp, #8]
	ldr	x0, [sp, #8]
	str	x0, [sp]                        ; 8-byte Folded Spill
	bl	__ZN6personD2Ev
	ldr	x0, [sp]                        ; 8-byte Folded Reload
	ldp	x29, x30, [sp, #16]             ; 16-byte Folded Reload
	add	sp, sp, #32
	ret
	.cfi_endproc
                                        ; -- End function
	.globl	__ZN6personC2Ev                 ; -- Begin function _ZN6personC2Ev
	.weak_def_can_be_hidden	__ZN6personC2Ev
	.p2align	2
__ZN6personC2Ev:                        ; @_ZN6personC2Ev
	.cfi_startproc
; %bb.0:
	sub	sp, sp, #32
	stp	x29, x30, [sp, #16]             ; 16-byte Folded Spill
	add	x29, sp, #16
	.cfi_def_cfa w29, 16
	.cfi_offset w30, -8
	.cfi_offset w29, -16
	str	x0, [sp, #8]
	ldr	x0, [sp, #8]
	str	x0, [sp]                        ; 8-byte Folded Spill
	bl	__ZNSt3__112basic_stringIcNS_11char_traitsIcEENS_9allocatorIcEEEC1Ev
	ldr	x0, [sp]                        ; 8-byte Folded Reload
	ldp	x29, x30, [sp, #16]             ; 16-byte Folded Reload
	add	sp, sp, #32
	ret
	.cfi_endproc
                                        ; -- End function
	.p2align	2                               ; -- Begin function _ZNSt3__112basic_stringIcNS_11char_traitsIcEENS_9allocatorIcEEEC1Ev
__ZNSt3__112basic_stringIcNS_11char_traitsIcEENS_9allocatorIcEEEC1Ev: ; @_ZNSt3__112basic_stringIcNS_11char_traitsIcEENS_9allocatorIcEEEC1Ev
	.cfi_startproc
; %bb.0:
	sub	sp, sp, #32
	stp	x29, x30, [sp, #16]             ; 16-byte Folded Spill
	add	x29, sp, #16
	.cfi_def_cfa w29, 16
	.cfi_offset w30, -8
	.cfi_offset w29, -16
	str	x0, [sp, #8]
	ldr	x0, [sp, #8]
	str	x0, [sp]                        ; 8-byte Folded Spill
	bl	__ZNSt3__112basic_stringIcNS_11char_traitsIcEENS_9allocatorIcEEEC2Ev
	ldr	x0, [sp]                        ; 8-byte Folded Reload
	ldp	x29, x30, [sp, #16]             ; 16-byte Folded Reload
	add	sp, sp, #32
	ret
	.cfi_endproc
                                        ; -- End function
	.p2align	2                               ; -- Begin function _ZNSt3__112basic_stringIcNS_11char_traitsIcEENS_9allocatorIcEEEC2Ev
__ZNSt3__112basic_stringIcNS_11char_traitsIcEENS_9allocatorIcEEEC2Ev: ; @_ZNSt3__112basic_stringIcNS_11char_traitsIcEENS_9allocatorIcEEEC2Ev
	.cfi_startproc
; %bb.0:
	sub	sp, sp, #48
	stp	x29, x30, [sp, #32]             ; 16-byte Folded Spill
	add	x29, sp, #32
	.cfi_def_cfa w29, 16
	.cfi_offset w30, -8
	.cfi_offset w29, -16
	stur	x0, [x29, #-8]
	ldur	x0, [x29, #-8]
	str	x0, [sp, #8]                    ; 8-byte Folded Spill
	sub	x1, x29, #9
	sub	x2, x29, #10
	bl	__ZNSt3__117__compressed_pairINS_12basic_stringIcNS_11char_traitsIcEENS_9allocatorIcEEE5__repES5_EC1INS_18__default_init_tagESA_EEOT_OT0_
	ldr	x0, [sp, #8]                    ; 8-byte Folded Reload
	bl	__ZNSt3__112basic_stringIcNS_11char_traitsIcEENS_9allocatorIcEEE6__zeroEv
	ldr	x0, [sp, #8]                    ; 8-byte Folded Reload
	ldp	x29, x30, [sp, #32]             ; 16-byte Folded Reload
	add	sp, sp, #48
	ret
	.cfi_endproc
                                        ; -- End function
	.p2align	2                               ; -- Begin function _ZNSt3__117__compressed_pairINS_12basic_stringIcNS_11char_traitsIcEENS_9allocatorIcEEE5__repES5_EC1INS_18__default_init_tagESA_EEOT_OT0_
__ZNSt3__117__compressed_pairINS_12basic_stringIcNS_11char_traitsIcEENS_9allocatorIcEEE5__repES5_EC1INS_18__default_init_tagESA_EEOT_OT0_: ; @_ZNSt3__117__compressed_pairINS_12basic_stringIcNS_11char_traitsIcEENS_9allocatorIcEEE5__repES5_EC1INS_18__default_init_tagESA_EEOT_OT0_
	.cfi_startproc
; %bb.0:
	sub	sp, sp, #48
	stp	x29, x30, [sp, #32]             ; 16-byte Folded Spill
	add	x29, sp, #32
	.cfi_def_cfa w29, 16
	.cfi_offset w30, -8
	.cfi_offset w29, -16
	stur	x0, [x29, #-8]
	str	x1, [sp, #16]
	str	x2, [sp, #8]
	ldur	x0, [x29, #-8]
	str	x0, [sp]                        ; 8-byte Folded Spill
	ldr	x1, [sp, #16]
	ldr	x2, [sp, #8]
	bl	__ZNSt3__117__compressed_pairINS_12basic_stringIcNS_11char_traitsIcEENS_9allocatorIcEEE5__repES5_EC2INS_18__default_init_tagESA_EEOT_OT0_
	ldr	x0, [sp]                        ; 8-byte Folded Reload
	ldp	x29, x30, [sp, #32]             ; 16-byte Folded Reload
	add	sp, sp, #48
	ret
	.cfi_endproc
                                        ; -- End function
	.p2align	2                               ; -- Begin function _ZNSt3__112basic_stringIcNS_11char_traitsIcEENS_9allocatorIcEEE6__zeroEv
__ZNSt3__112basic_stringIcNS_11char_traitsIcEENS_9allocatorIcEEE6__zeroEv: ; @_ZNSt3__112basic_stringIcNS_11char_traitsIcEENS_9allocatorIcEEE6__zeroEv
	.cfi_startproc
; %bb.0:
	sub	sp, sp, #48
	stp	x29, x30, [sp, #32]             ; 16-byte Folded Spill
	add	x29, sp, #32
	.cfi_def_cfa w29, 16
	.cfi_offset w30, -8
	.cfi_offset w29, -16
	stur	x0, [x29, #-8]
	ldur	x0, [x29, #-8]
	bl	__ZNSt3__117__compressed_pairINS_12basic_stringIcNS_11char_traitsIcEENS_9allocatorIcEEE5__repES5_E5firstEv
	str	x0, [sp, #16]
	str	wzr, [sp, #12]
	b	LBB15_1
LBB15_1:                                ; =>This Inner Loop Header: Depth=1
	ldr	w8, [sp, #12]
	subs	w8, w8, #3
	b.hs	LBB15_4
	b	LBB15_2
LBB15_2:                                ;   in Loop: Header=BB15_1 Depth=1
	ldr	x9, [sp, #16]
	ldr	w8, [sp, #12]
	mov	x10, x8
	mov	x8, #0
	str	x8, [x9, x10, lsl #3]
	b	LBB15_3
LBB15_3:                                ;   in Loop: Header=BB15_1 Depth=1
	ldr	w8, [sp, #12]
	add	w8, w8, #1
	str	w8, [sp, #12]
	b	LBB15_1
LBB15_4:
	ldp	x29, x30, [sp, #32]             ; 16-byte Folded Reload
	add	sp, sp, #48
	ret
	.cfi_endproc
                                        ; -- End function
	.p2align	2                               ; -- Begin function _ZNSt3__117__compressed_pairINS_12basic_stringIcNS_11char_traitsIcEENS_9allocatorIcEEE5__repES5_EC2INS_18__default_init_tagESA_EEOT_OT0_
__ZNSt3__117__compressed_pairINS_12basic_stringIcNS_11char_traitsIcEENS_9allocatorIcEEE5__repES5_EC2INS_18__default_init_tagESA_EEOT_OT0_: ; @_ZNSt3__117__compressed_pairINS_12basic_stringIcNS_11char_traitsIcEENS_9allocatorIcEEE5__repES5_EC2INS_18__default_init_tagESA_EEOT_OT0_
	.cfi_startproc
; %bb.0:
	sub	sp, sp, #64
	stp	x29, x30, [sp, #48]             ; 16-byte Folded Spill
	add	x29, sp, #48
	.cfi_def_cfa w29, 16
	.cfi_offset w30, -8
	.cfi_offset w29, -16
	stur	x0, [x29, #-8]
	stur	x1, [x29, #-16]
	str	x2, [sp, #24]
	ldur	x8, [x29, #-8]
	str	x8, [sp, #8]                    ; 8-byte Folded Spill
	ldur	x0, [x29, #-16]
	bl	__ZNSt3__1L7forwardINS_18__default_init_tagEEEOT_RNS_16remove_referenceIS2_E4typeE
	ldr	x0, [sp, #8]                    ; 8-byte Folded Reload
	bl	__ZNSt3__122__compressed_pair_elemINS_12basic_stringIcNS_11char_traitsIcEENS_9allocatorIcEEE5__repELi0ELb0EEC2ENS_18__default_init_tagE
	ldr	x0, [sp, #24]
	bl	__ZNSt3__1L7forwardINS_18__default_init_tagEEEOT_RNS_16remove_referenceIS2_E4typeE
	ldr	x0, [sp, #8]                    ; 8-byte Folded Reload
	bl	__ZNSt3__122__compressed_pair_elemINS_9allocatorIcEELi1ELb1EEC2ENS_18__default_init_tagE
	ldr	x0, [sp, #8]                    ; 8-byte Folded Reload
	ldp	x29, x30, [sp, #48]             ; 16-byte Folded Reload
	add	sp, sp, #64
	ret
	.cfi_endproc
                                        ; -- End function
	.p2align	2                               ; -- Begin function _ZNSt3__1L7forwardINS_18__default_init_tagEEEOT_RNS_16remove_referenceIS2_E4typeE
__ZNSt3__1L7forwardINS_18__default_init_tagEEEOT_RNS_16remove_referenceIS2_E4typeE: ; @_ZNSt3__1L7forwardINS_18__default_init_tagEEEOT_RNS_16remove_referenceIS2_E4typeE
	.cfi_startproc
; %bb.0:
	sub	sp, sp, #16
	.cfi_def_cfa_offset 16
	str	x0, [sp, #8]
	ldr	x0, [sp, #8]
	add	sp, sp, #16
	ret
	.cfi_endproc
                                        ; -- End function
	.p2align	2                               ; -- Begin function _ZNSt3__122__compressed_pair_elemINS_12basic_stringIcNS_11char_traitsIcEENS_9allocatorIcEEE5__repELi0ELb0EEC2ENS_18__default_init_tagE
__ZNSt3__122__compressed_pair_elemINS_12basic_stringIcNS_11char_traitsIcEENS_9allocatorIcEEE5__repELi0ELb0EEC2ENS_18__default_init_tagE: ; @_ZNSt3__122__compressed_pair_elemINS_12basic_stringIcNS_11char_traitsIcEENS_9allocatorIcEEE5__repELi0ELb0EEC2ENS_18__default_init_tagE
	.cfi_startproc
; %bb.0:
	sub	sp, sp, #16
	.cfi_def_cfa_offset 16
	str	x0, [sp]
	ldr	x0, [sp]
	add	sp, sp, #16
	ret
	.cfi_endproc
                                        ; -- End function
	.p2align	2                               ; -- Begin function _ZNSt3__122__compressed_pair_elemINS_9allocatorIcEELi1ELb1EEC2ENS_18__default_init_tagE
__ZNSt3__122__compressed_pair_elemINS_9allocatorIcEELi1ELb1EEC2ENS_18__default_init_tagE: ; @_ZNSt3__122__compressed_pair_elemINS_9allocatorIcEELi1ELb1EEC2ENS_18__default_init_tagE
	.cfi_startproc
; %bb.0:
	sub	sp, sp, #48
	stp	x29, x30, [sp, #32]             ; 16-byte Folded Spill
	add	x29, sp, #32
	.cfi_def_cfa w29, 16
	.cfi_offset w30, -8
	.cfi_offset w29, -16
	str	x0, [sp, #16]
	ldr	x0, [sp, #16]
	str	x0, [sp, #8]                    ; 8-byte Folded Spill
	bl	__ZNSt3__19allocatorIcEC2Ev
	ldr	x0, [sp, #8]                    ; 8-byte Folded Reload
	ldp	x29, x30, [sp, #32]             ; 16-byte Folded Reload
	add	sp, sp, #48
	ret
	.cfi_endproc
                                        ; -- End function
	.p2align	2                               ; -- Begin function _ZNSt3__19allocatorIcEC2Ev
__ZNSt3__19allocatorIcEC2Ev:            ; @_ZNSt3__19allocatorIcEC2Ev
	.cfi_startproc
; %bb.0:
	sub	sp, sp, #32
	stp	x29, x30, [sp, #16]             ; 16-byte Folded Spill
	add	x29, sp, #16
	.cfi_def_cfa w29, 16
	.cfi_offset w30, -8
	.cfi_offset w29, -16
	str	x0, [sp, #8]
	ldr	x0, [sp, #8]
	str	x0, [sp]                        ; 8-byte Folded Spill
	bl	__ZNSt3__116__non_trivial_ifILb1ENS_9allocatorIcEEEC2Ev
	ldr	x0, [sp]                        ; 8-byte Folded Reload
	ldp	x29, x30, [sp, #16]             ; 16-byte Folded Reload
	add	sp, sp, #32
	ret
	.cfi_endproc
                                        ; -- End function
	.p2align	2                               ; -- Begin function _ZNSt3__116__non_trivial_ifILb1ENS_9allocatorIcEEEC2Ev
__ZNSt3__116__non_trivial_ifILb1ENS_9allocatorIcEEEC2Ev: ; @_ZNSt3__116__non_trivial_ifILb1ENS_9allocatorIcEEEC2Ev
	.cfi_startproc
; %bb.0:
	sub	sp, sp, #16
	.cfi_def_cfa_offset 16
	str	x0, [sp, #8]
	ldr	x0, [sp, #8]
	add	sp, sp, #16
	ret
	.cfi_endproc
                                        ; -- End function
	.p2align	2                               ; -- Begin function _ZNSt3__117__compressed_pairINS_12basic_stringIcNS_11char_traitsIcEENS_9allocatorIcEEE5__repES5_E5firstEv
__ZNSt3__117__compressed_pairINS_12basic_stringIcNS_11char_traitsIcEENS_9allocatorIcEEE5__repES5_E5firstEv: ; @_ZNSt3__117__compressed_pairINS_12basic_stringIcNS_11char_traitsIcEENS_9allocatorIcEEE5__repES5_E5firstEv
	.cfi_startproc
; %bb.0:
	sub	sp, sp, #32
	stp	x29, x30, [sp, #16]             ; 16-byte Folded Spill
	add	x29, sp, #16
	.cfi_def_cfa w29, 16
	.cfi_offset w30, -8
	.cfi_offset w29, -16
	str	x0, [sp, #8]
	ldr	x0, [sp, #8]
	bl	__ZNSt3__122__compressed_pair_elemINS_12basic_stringIcNS_11char_traitsIcEENS_9allocatorIcEEE5__repELi0ELb0EE5__getEv
	ldp	x29, x30, [sp, #16]             ; 16-byte Folded Reload
	add	sp, sp, #32
	ret
	.cfi_endproc
                                        ; -- End function
	.p2align	2                               ; -- Begin function _ZNSt3__122__compressed_pair_elemINS_12basic_stringIcNS_11char_traitsIcEENS_9allocatorIcEEE5__repELi0ELb0EE5__getEv
__ZNSt3__122__compressed_pair_elemINS_12basic_stringIcNS_11char_traitsIcEENS_9allocatorIcEEE5__repELi0ELb0EE5__getEv: ; @_ZNSt3__122__compressed_pair_elemINS_12basic_stringIcNS_11char_traitsIcEENS_9allocatorIcEEE5__repELi0ELb0EE5__getEv
	.cfi_startproc
; %bb.0:
	sub	sp, sp, #16
	.cfi_def_cfa_offset 16
	str	x0, [sp, #8]
	ldr	x0, [sp, #8]
	add	sp, sp, #16
	ret
	.cfi_endproc
                                        ; -- End function
	.globl	__ZN6personD2Ev                 ; -- Begin function _ZN6personD2Ev
	.weak_def_can_be_hidden	__ZN6personD2Ev
	.p2align	2
__ZN6personD2Ev:                        ; @_ZN6personD2Ev
	.cfi_startproc
; %bb.0:
	sub	sp, sp, #32
	stp	x29, x30, [sp, #16]             ; 16-byte Folded Spill
	add	x29, sp, #16
	.cfi_def_cfa w29, 16
	.cfi_offset w30, -8
	.cfi_offset w29, -16
	str	x0, [sp, #8]
	ldr	x0, [sp, #8]
	str	x0, [sp]                        ; 8-byte Folded Spill
	bl	__ZNSt3__112basic_stringIcNS_11char_traitsIcEENS_9allocatorIcEEED1Ev
	ldr	x0, [sp]                        ; 8-byte Folded Reload
	ldp	x29, x30, [sp, #16]             ; 16-byte Folded Reload
	add	sp, sp, #32
	ret
	.cfi_endproc
                                        ; -- End function
	.globl	__ZNSt3__124__put_character_sequenceIcNS_11char_traitsIcEEEERNS_13basic_ostreamIT_T0_EES7_PKS4_m ; -- Begin function _ZNSt3__124__put_character_sequenceIcNS_11char_traitsIcEEEERNS_13basic_ostreamIT_T0_EES7_PKS4_m
	.weak_definition	__ZNSt3__124__put_character_sequenceIcNS_11char_traitsIcEEEERNS_13basic_ostreamIT_T0_EES7_PKS4_m
	.p2align	2
__ZNSt3__124__put_character_sequenceIcNS_11char_traitsIcEEEERNS_13basic_ostreamIT_T0_EES7_PKS4_m: ; @_ZNSt3__124__put_character_sequenceIcNS_11char_traitsIcEEEERNS_13basic_ostreamIT_T0_EES7_PKS4_m
Lfunc_begin1:
	.cfi_startproc
	.cfi_personality 155, ___gxx_personality_v0
	.cfi_lsda 16, Lexception1
; %bb.0:
	sub	sp, sp, #160
	stp	x29, x30, [sp, #144]            ; 16-byte Folded Spill
	add	x29, sp, #144
	.cfi_def_cfa w29, 16
	.cfi_offset w30, -8
	.cfi_offset w29, -16
	stur	x0, [x29, #-8]
	stur	x1, [x29, #-16]
	stur	x2, [x29, #-24]
	ldur	x1, [x29, #-8]
Ltmp49:
	sub	x0, x29, #40
	bl	__ZNSt3__113basic_ostreamIcNS_11char_traitsIcEEE6sentryC1ERS3_
Ltmp50:
	b	LBB25_1
LBB25_1:
Ltmp51:
	sub	x0, x29, #40
	bl	__ZNKSt3__113basic_ostreamIcNS_11char_traitsIcEEE6sentrycvbEv
	str	w0, [sp, #68]                   ; 4-byte Folded Spill
Ltmp52:
	b	LBB25_2
LBB25_2:
	ldr	w8, [sp, #68]                   ; 4-byte Folded Reload
	tbz	w8, #0, LBB25_15
	b	LBB25_3
LBB25_3:
	ldur	x1, [x29, #-8]
	add	x0, sp, #72
	bl	__ZNSt3__119ostreambuf_iteratorIcNS_11char_traitsIcEEEC1ERNS_13basic_ostreamIcS2_EE
	ldur	x8, [x29, #-16]
	str	x8, [sp, #56]                   ; 8-byte Folded Spill
	ldur	x8, [x29, #-8]
	ldr	x9, [x8]
	ldur	x9, [x9, #-24]
	add	x0, x8, x9
Ltmp53:
	bl	__ZNKSt3__18ios_base5flagsEv
	str	w0, [sp, #64]                   ; 4-byte Folded Spill
Ltmp54:
	b	LBB25_4
LBB25_4:
	ldr	w8, [sp, #64]                   ; 4-byte Folded Reload
	mov	w9, #176
	and	w8, w8, w9
	subs	w8, w8, #32
	b.ne	LBB25_6
	b	LBB25_5
LBB25_5:
	ldur	x8, [x29, #-16]
	ldur	x9, [x29, #-24]
	add	x8, x8, x9
	str	x8, [sp, #48]                   ; 8-byte Folded Spill
	b	LBB25_7
LBB25_6:
	ldur	x8, [x29, #-16]
	str	x8, [sp, #48]                   ; 8-byte Folded Spill
	b	LBB25_7
LBB25_7:
	ldr	x8, [sp, #48]                   ; 8-byte Folded Reload
	str	x8, [sp, #16]                   ; 8-byte Folded Spill
	ldur	x8, [x29, #-16]
	ldur	x9, [x29, #-24]
	add	x8, x8, x9
	str	x8, [sp, #24]                   ; 8-byte Folded Spill
	ldur	x8, [x29, #-8]
	ldr	x9, [x8]
	ldur	x9, [x9, #-24]
	add	x8, x8, x9
	str	x8, [sp, #32]                   ; 8-byte Folded Spill
	ldur	x8, [x29, #-8]
	ldr	x9, [x8]
	ldur	x9, [x9, #-24]
	add	x0, x8, x9
Ltmp55:
	bl	__ZNKSt3__19basic_iosIcNS_11char_traitsIcEEE4fillEv
	str	w0, [sp, #44]                   ; 4-byte Folded Spill
Ltmp56:
	b	LBB25_8
LBB25_8:
	ldr	w8, [sp, #44]                   ; 4-byte Folded Reload
	ldr	x4, [sp, #32]                   ; 8-byte Folded Reload
	ldr	x3, [sp, #24]                   ; 8-byte Folded Reload
	ldr	x2, [sp, #16]                   ; 8-byte Folded Reload
	ldr	x1, [sp, #56]                   ; 8-byte Folded Reload
	ldr	x0, [sp, #72]
Ltmp57:
	sxtb	w5, w8
	bl	__ZNSt3__116__pad_and_outputIcNS_11char_traitsIcEEEENS_19ostreambuf_iteratorIT_T0_EES6_PKS4_S8_S8_RNS_8ios_baseES4_
	str	x0, [sp, #8]                    ; 8-byte Folded Spill
Ltmp58:
	b	LBB25_9
LBB25_9:
	ldr	x8, [sp, #8]                    ; 8-byte Folded Reload
	sub	x0, x29, #64
	stur	x8, [x29, #-64]
	bl	__ZNKSt3__119ostreambuf_iteratorIcNS_11char_traitsIcEEE6failedEv
	tbz	w0, #0, LBB25_14
	b	LBB25_10
LBB25_10:
	ldur	x8, [x29, #-8]
	ldr	x9, [x8]
	ldur	x9, [x9, #-24]
	add	x0, x8, x9
Ltmp59:
	mov	w1, #5
	bl	__ZNSt3__19basic_iosIcNS_11char_traitsIcEEE8setstateEj
Ltmp60:
	b	LBB25_11
LBB25_11:
	b	LBB25_14
LBB25_12:
Ltmp66:
	mov	x8, x1
	stur	x0, [x29, #-48]
	stur	w8, [x29, #-52]
	b	LBB25_18
LBB25_13:
Ltmp61:
	mov	x8, x1
	stur	x0, [x29, #-48]
	stur	w8, [x29, #-52]
Ltmp62:
	sub	x0, x29, #40
	bl	__ZNSt3__113basic_ostreamIcNS_11char_traitsIcEEE6sentryD1Ev
Ltmp63:
	b	LBB25_17
LBB25_14:
	b	LBB25_15
LBB25_15:
Ltmp64:
	sub	x0, x29, #40
	bl	__ZNSt3__113basic_ostreamIcNS_11char_traitsIcEEE6sentryD1Ev
Ltmp65:
	b	LBB25_16
LBB25_16:
	b	LBB25_20
LBB25_17:
	b	LBB25_18
LBB25_18:
	ldur	x0, [x29, #-48]
	bl	___cxa_begin_catch
	ldur	x8, [x29, #-8]
	ldr	x9, [x8]
	ldur	x9, [x9, #-24]
	add	x0, x8, x9
Ltmp67:
	bl	__ZNSt3__18ios_base33__set_badbit_and_consider_rethrowEv
Ltmp68:
	b	LBB25_19
LBB25_19:
	bl	___cxa_end_catch
	b	LBB25_20
LBB25_20:
	ldur	x0, [x29, #-8]
	ldp	x29, x30, [sp, #144]            ; 16-byte Folded Reload
	add	sp, sp, #160
	ret
LBB25_21:
Ltmp69:
	mov	x8, x1
	stur	x0, [x29, #-48]
	stur	w8, [x29, #-52]
Ltmp70:
	bl	___cxa_end_catch
Ltmp71:
	b	LBB25_22
LBB25_22:
	b	LBB25_23
LBB25_23:
	ldur	x0, [x29, #-48]
	bl	__Unwind_Resume
LBB25_24:
Ltmp72:
	bl	___clang_call_terminate
Lfunc_end1:
	.cfi_endproc
	.section	__TEXT,__gcc_except_tab
	.p2align	2
GCC_except_table25:
Lexception1:
	.byte	255                             ; @LPStart Encoding = omit
	.byte	155                             ; @TType Encoding = indirect pcrel sdata4
	.uleb128 Lttbase1-Lttbaseref1
Lttbaseref1:
	.byte	1                               ; Call site Encoding = uleb128
	.uleb128 Lcst_end1-Lcst_begin1
Lcst_begin1:
	.uleb128 Ltmp49-Lfunc_begin1            ; >> Call Site 1 <<
	.uleb128 Ltmp50-Ltmp49                  ;   Call between Ltmp49 and Ltmp50
	.uleb128 Ltmp66-Lfunc_begin1            ;     jumps to Ltmp66
	.byte	1                               ;   On action: 1
	.uleb128 Ltmp51-Lfunc_begin1            ; >> Call Site 2 <<
	.uleb128 Ltmp60-Ltmp51                  ;   Call between Ltmp51 and Ltmp60
	.uleb128 Ltmp61-Lfunc_begin1            ;     jumps to Ltmp61
	.byte	1                               ;   On action: 1
	.uleb128 Ltmp62-Lfunc_begin1            ; >> Call Site 3 <<
	.uleb128 Ltmp63-Ltmp62                  ;   Call between Ltmp62 and Ltmp63
	.uleb128 Ltmp72-Lfunc_begin1            ;     jumps to Ltmp72
	.byte	1                               ;   On action: 1
	.uleb128 Ltmp64-Lfunc_begin1            ; >> Call Site 4 <<
	.uleb128 Ltmp65-Ltmp64                  ;   Call between Ltmp64 and Ltmp65
	.uleb128 Ltmp66-Lfunc_begin1            ;     jumps to Ltmp66
	.byte	1                               ;   On action: 1
	.uleb128 Ltmp65-Lfunc_begin1            ; >> Call Site 5 <<
	.uleb128 Ltmp67-Ltmp65                  ;   Call between Ltmp65 and Ltmp67
	.byte	0                               ;     has no landing pad
	.byte	0                               ;   On action: cleanup
	.uleb128 Ltmp67-Lfunc_begin1            ; >> Call Site 6 <<
	.uleb128 Ltmp68-Ltmp67                  ;   Call between Ltmp67 and Ltmp68
	.uleb128 Ltmp69-Lfunc_begin1            ;     jumps to Ltmp69
	.byte	0                               ;   On action: cleanup
	.uleb128 Ltmp68-Lfunc_begin1            ; >> Call Site 7 <<
	.uleb128 Ltmp70-Ltmp68                  ;   Call between Ltmp68 and Ltmp70
	.byte	0                               ;     has no landing pad
	.byte	0                               ;   On action: cleanup
	.uleb128 Ltmp70-Lfunc_begin1            ; >> Call Site 8 <<
	.uleb128 Ltmp71-Ltmp70                  ;   Call between Ltmp70 and Ltmp71
	.uleb128 Ltmp72-Lfunc_begin1            ;     jumps to Ltmp72
	.byte	1                               ;   On action: 1
	.uleb128 Ltmp71-Lfunc_begin1            ; >> Call Site 9 <<
	.uleb128 Lfunc_end1-Ltmp71              ;   Call between Ltmp71 and Lfunc_end1
	.byte	0                               ;     has no landing pad
	.byte	0                               ;   On action: cleanup
Lcst_end1:
	.byte	1                               ; >> Action Record 1 <<
                                        ;   Catch TypeInfo 1
	.byte	0                               ;   No further actions
	.p2align	2
                                        ; >> Catch TypeInfos <<
	.long	0                               ; TypeInfo 1
Lttbase1:
	.p2align	2
                                        ; -- End function
	.section	__TEXT,__text,regular,pure_instructions
	.p2align	2                               ; -- Begin function _ZNKSt3__112basic_stringIcNS_11char_traitsIcEENS_9allocatorIcEEE4dataEv
__ZNKSt3__112basic_stringIcNS_11char_traitsIcEENS_9allocatorIcEEE4dataEv: ; @_ZNKSt3__112basic_stringIcNS_11char_traitsIcEENS_9allocatorIcEEE4dataEv
	.cfi_startproc
; %bb.0:
	sub	sp, sp, #32
	stp	x29, x30, [sp, #16]             ; 16-byte Folded Spill
	add	x29, sp, #16
	.cfi_def_cfa w29, 16
	.cfi_offset w30, -8
	.cfi_offset w29, -16
	str	x0, [sp, #8]
	ldr	x0, [sp, #8]
	bl	__ZNKSt3__112basic_stringIcNS_11char_traitsIcEENS_9allocatorIcEEE13__get_pointerEv
	bl	__ZNSt3__1L12__to_addressIKcEEPT_S3_
	ldp	x29, x30, [sp, #16]             ; 16-byte Folded Reload
	add	sp, sp, #32
	ret
	.cfi_endproc
                                        ; -- End function
	.p2align	2                               ; -- Begin function _ZNKSt3__112basic_stringIcNS_11char_traitsIcEENS_9allocatorIcEEE4sizeEv
__ZNKSt3__112basic_stringIcNS_11char_traitsIcEENS_9allocatorIcEEE4sizeEv: ; @_ZNKSt3__112basic_stringIcNS_11char_traitsIcEENS_9allocatorIcEEE4sizeEv
	.cfi_startproc
; %bb.0:
	sub	sp, sp, #48
	stp	x29, x30, [sp, #32]             ; 16-byte Folded Spill
	add	x29, sp, #32
	.cfi_def_cfa w29, 16
	.cfi_offset w30, -8
	.cfi_offset w29, -16
	stur	x0, [x29, #-8]
	ldur	x0, [x29, #-8]
	str	x0, [sp, #16]                   ; 8-byte Folded Spill
	bl	__ZNKSt3__112basic_stringIcNS_11char_traitsIcEENS_9allocatorIcEEE9__is_longEv
	tbz	w0, #0, LBB27_2
	b	LBB27_1
LBB27_1:
	ldr	x0, [sp, #16]                   ; 8-byte Folded Reload
	bl	__ZNKSt3__112basic_stringIcNS_11char_traitsIcEENS_9allocatorIcEEE15__get_long_sizeEv
	str	x0, [sp, #8]                    ; 8-byte Folded Spill
	b	LBB27_3
LBB27_2:
	ldr	x0, [sp, #16]                   ; 8-byte Folded Reload
	bl	__ZNKSt3__112basic_stringIcNS_11char_traitsIcEENS_9allocatorIcEEE16__get_short_sizeEv
	str	x0, [sp, #8]                    ; 8-byte Folded Spill
	b	LBB27_3
LBB27_3:
	ldr	x0, [sp, #8]                    ; 8-byte Folded Reload
	ldp	x29, x30, [sp, #32]             ; 16-byte Folded Reload
	add	sp, sp, #48
	ret
	.cfi_endproc
                                        ; -- End function
	.p2align	2                               ; -- Begin function _ZNKSt3__113basic_ostreamIcNS_11char_traitsIcEEE6sentrycvbEv
__ZNKSt3__113basic_ostreamIcNS_11char_traitsIcEEE6sentrycvbEv: ; @_ZNKSt3__113basic_ostreamIcNS_11char_traitsIcEEE6sentrycvbEv
	.cfi_startproc
; %bb.0:
	sub	sp, sp, #16
	.cfi_def_cfa_offset 16
	str	x0, [sp, #8]
	ldr	x8, [sp, #8]
	ldrb	w8, [x8]
	and	w0, w8, #0x1
	add	sp, sp, #16
	ret
	.cfi_endproc
                                        ; -- End function
	.private_extern	__ZNSt3__116__pad_and_outputIcNS_11char_traitsIcEEEENS_19ostreambuf_iteratorIT_T0_EES6_PKS4_S8_S8_RNS_8ios_baseES4_ ; -- Begin function _ZNSt3__116__pad_and_outputIcNS_11char_traitsIcEEEENS_19ostreambuf_iteratorIT_T0_EES6_PKS4_S8_S8_RNS_8ios_baseES4_
	.globl	__ZNSt3__116__pad_and_outputIcNS_11char_traitsIcEEEENS_19ostreambuf_iteratorIT_T0_EES6_PKS4_S8_S8_RNS_8ios_baseES4_
	.weak_definition	__ZNSt3__116__pad_and_outputIcNS_11char_traitsIcEEEENS_19ostreambuf_iteratorIT_T0_EES6_PKS4_S8_S8_RNS_8ios_baseES4_
	.p2align	2
__ZNSt3__116__pad_and_outputIcNS_11char_traitsIcEEEENS_19ostreambuf_iteratorIT_T0_EES6_PKS4_S8_S8_RNS_8ios_baseES4_: ; @_ZNSt3__116__pad_and_outputIcNS_11char_traitsIcEEEENS_19ostreambuf_iteratorIT_T0_EES6_PKS4_S8_S8_RNS_8ios_baseES4_
Lfunc_begin2:
	.cfi_startproc
	.cfi_personality 155, ___gxx_personality_v0
	.cfi_lsda 16, Lexception2
; %bb.0:
	sub	sp, sp, #224
	stp	x29, x30, [sp, #208]            ; 16-byte Folded Spill
	add	x29, sp, #208
	.cfi_def_cfa w29, 16
	.cfi_offset w30, -8
	.cfi_offset w29, -16
	stur	x0, [x29, #-16]
	stur	x1, [x29, #-24]
	stur	x2, [x29, #-32]
	stur	x3, [x29, #-40]
	stur	x4, [x29, #-48]
	sturb	w5, [x29, #-49]
	ldur	x8, [x29, #-16]
	str	x8, [sp, #40]                   ; 8-byte Folded Spill
	bl	__ZNSt3__1L15__get_nullptr_tEv
	mov	x8, x0
	sub	x0, x29, #64
	stur	x8, [x29, #-64]
	bl	__ZNKSt3__19nullptr_tcvPT_INS_15basic_streambufIcNS_11char_traitsIcEEEEEEv
	ldr	x8, [sp, #40]                   ; 8-byte Folded Reload
	subs	x8, x8, x0
	b.ne	LBB29_2
	b	LBB29_1
LBB29_1:
	ldur	x8, [x29, #-16]
	stur	x8, [x29, #-8]
	b	LBB29_26
LBB29_2:
	ldur	x8, [x29, #-40]
	ldur	x9, [x29, #-24]
	subs	x8, x8, x9
	stur	x8, [x29, #-72]
	ldur	x0, [x29, #-48]
	bl	__ZNKSt3__18ios_base5widthEv
	stur	x0, [x29, #-80]
	ldur	x8, [x29, #-80]
	ldur	x9, [x29, #-72]
	subs	x8, x8, x9
	b.le	LBB29_4
	b	LBB29_3
LBB29_3:
	ldur	x9, [x29, #-72]
	ldur	x8, [x29, #-80]
	subs	x8, x8, x9
	stur	x8, [x29, #-80]
	b	LBB29_5
LBB29_4:
	stur	xzr, [x29, #-80]
	b	LBB29_5
LBB29_5:
	ldur	x8, [x29, #-32]
	ldur	x9, [x29, #-24]
	subs	x8, x8, x9
	stur	x8, [x29, #-88]
	ldur	x8, [x29, #-88]
	subs	x8, x8, #0
	b.le	LBB29_9
	b	LBB29_6
LBB29_6:
	ldur	x0, [x29, #-16]
	ldur	x1, [x29, #-24]
	ldur	x2, [x29, #-88]
	bl	__ZNSt3__115basic_streambufIcNS_11char_traitsIcEEE5sputnEPKcl
	ldur	x8, [x29, #-88]
	subs	x8, x0, x8
	b.eq	LBB29_8
	b	LBB29_7
LBB29_7:
	bl	__ZNSt3__1L15__get_nullptr_tEv
	mov	x8, x0
	sub	x0, x29, #96
	stur	x8, [x29, #-96]
	bl	__ZNKSt3__19nullptr_tcvPT_INS_15basic_streambufIcNS_11char_traitsIcEEEEEEv
	stur	x0, [x29, #-16]
	ldur	x8, [x29, #-16]
	stur	x8, [x29, #-8]
	b	LBB29_26
LBB29_8:
	b	LBB29_9
LBB29_9:
	ldur	x8, [x29, #-80]
	subs	x8, x8, #0
	b.le	LBB29_21
	b	LBB29_10
LBB29_10:
	ldur	x1, [x29, #-80]
	ldursb	w2, [x29, #-49]
	add	x0, sp, #88
	str	x0, [sp, #16]                   ; 8-byte Folded Spill
	bl	__ZNSt3__112basic_stringIcNS_11char_traitsIcEENS_9allocatorIcEEEC1Emc
	ldr	x0, [sp, #16]                   ; 8-byte Folded Reload
	ldur	x8, [x29, #-16]
	str	x8, [sp, #24]                   ; 8-byte Folded Spill
	bl	__ZNKSt3__112basic_stringIcNS_11char_traitsIcEENS_9allocatorIcEEE4dataEv
	mov	x1, x0
	ldr	x0, [sp, #24]                   ; 8-byte Folded Reload
	ldur	x2, [x29, #-80]
Ltmp74:
	bl	__ZNSt3__115basic_streambufIcNS_11char_traitsIcEEE5sputnEPKcl
	str	x0, [sp, #32]                   ; 8-byte Folded Spill
Ltmp75:
	b	LBB29_11
LBB29_11:
	ldr	x8, [sp, #32]                   ; 8-byte Folded Reload
	ldur	x9, [x29, #-80]
	subs	x8, x8, x9
	b.eq	LBB29_16
	b	LBB29_12
LBB29_12:
Ltmp76:
	bl	__ZNSt3__1L15__get_nullptr_tEv
	str	x0, [sp, #8]                    ; 8-byte Folded Spill
Ltmp77:
	b	LBB29_13
LBB29_13:
	ldr	x8, [sp, #8]                    ; 8-byte Folded Reload
	add	x0, sp, #64
	str	x8, [sp, #64]
Ltmp78:
	bl	__ZNKSt3__19nullptr_tcvPT_INS_15basic_streambufIcNS_11char_traitsIcEEEEEEv
	str	x0, [sp]                        ; 8-byte Folded Spill
Ltmp79:
	b	LBB29_14
LBB29_14:
	ldr	x8, [sp]                        ; 8-byte Folded Reload
	stur	x8, [x29, #-16]
	ldur	x8, [x29, #-16]
	stur	x8, [x29, #-8]
	mov	w8, #1
	str	w8, [sp, #60]
	b	LBB29_17
LBB29_15:
Ltmp80:
	mov	x8, x1
	str	x0, [sp, #80]
	str	w8, [sp, #76]
Ltmp81:
	add	x0, sp, #88
	bl	__ZNSt3__112basic_stringIcNS_11char_traitsIcEENS_9allocatorIcEEED1Ev
Ltmp82:
	b	LBB29_20
LBB29_16:
	str	wzr, [sp, #60]
	b	LBB29_17
LBB29_17:
	add	x0, sp, #88
	bl	__ZNSt3__112basic_stringIcNS_11char_traitsIcEENS_9allocatorIcEEED1Ev
	ldr	w8, [sp, #60]
	cbz	w8, LBB29_19
	b	LBB29_18
LBB29_18:
	b	LBB29_26
LBB29_19:
	b	LBB29_21
LBB29_20:
	b	LBB29_27
LBB29_21:
	ldur	x8, [x29, #-40]
	ldur	x9, [x29, #-32]
	subs	x8, x8, x9
	stur	x8, [x29, #-88]
	ldur	x8, [x29, #-88]
	subs	x8, x8, #0
	b.le	LBB29_25
	b	LBB29_22
LBB29_22:
	ldur	x0, [x29, #-16]
	ldur	x1, [x29, #-32]
	ldur	x2, [x29, #-88]
	bl	__ZNSt3__115basic_streambufIcNS_11char_traitsIcEEE5sputnEPKcl
	ldur	x8, [x29, #-88]
	subs	x8, x0, x8
	b.eq	LBB29_24
	b	LBB29_23
LBB29_23:
	bl	__ZNSt3__1L15__get_nullptr_tEv
	mov	x8, x0
	add	x0, sp, #48
	str	x8, [sp, #48]
	bl	__ZNKSt3__19nullptr_tcvPT_INS_15basic_streambufIcNS_11char_traitsIcEEEEEEv
	stur	x0, [x29, #-16]
	ldur	x8, [x29, #-16]
	stur	x8, [x29, #-8]
	b	LBB29_26
LBB29_24:
	b	LBB29_25
LBB29_25:
	ldur	x0, [x29, #-48]
	mov	x1, #0
	bl	__ZNSt3__18ios_base5widthEl
	ldur	x8, [x29, #-16]
	stur	x8, [x29, #-8]
	b	LBB29_26
LBB29_26:
	ldur	x0, [x29, #-8]
	ldp	x29, x30, [sp, #208]            ; 16-byte Folded Reload
	add	sp, sp, #224
	ret
LBB29_27:
	ldr	x0, [sp, #80]
	bl	__Unwind_Resume
LBB29_28:
Ltmp83:
	bl	___clang_call_terminate
; %bb.29:
Lfunc_end2:
	.cfi_endproc
	.section	__TEXT,__gcc_except_tab
	.p2align	2
GCC_except_table29:
Lexception2:
	.byte	255                             ; @LPStart Encoding = omit
	.byte	155                             ; @TType Encoding = indirect pcrel sdata4
	.uleb128 Lttbase2-Lttbaseref2
Lttbaseref2:
	.byte	1                               ; Call site Encoding = uleb128
	.uleb128 Lcst_end2-Lcst_begin2
Lcst_begin2:
	.uleb128 Lfunc_begin2-Lfunc_begin2      ; >> Call Site 1 <<
	.uleb128 Ltmp74-Lfunc_begin2            ;   Call between Lfunc_begin2 and Ltmp74
	.byte	0                               ;     has no landing pad
	.byte	0                               ;   On action: cleanup
	.uleb128 Ltmp74-Lfunc_begin2            ; >> Call Site 2 <<
	.uleb128 Ltmp79-Ltmp74                  ;   Call between Ltmp74 and Ltmp79
	.uleb128 Ltmp80-Lfunc_begin2            ;     jumps to Ltmp80
	.byte	0                               ;   On action: cleanup
	.uleb128 Ltmp81-Lfunc_begin2            ; >> Call Site 3 <<
	.uleb128 Ltmp82-Ltmp81                  ;   Call between Ltmp81 and Ltmp82
	.uleb128 Ltmp83-Lfunc_begin2            ;     jumps to Ltmp83
	.byte	1                               ;   On action: 1
	.uleb128 Ltmp82-Lfunc_begin2            ; >> Call Site 4 <<
	.uleb128 Lfunc_end2-Ltmp82              ;   Call between Ltmp82 and Lfunc_end2
	.byte	0                               ;     has no landing pad
	.byte	0                               ;   On action: cleanup
Lcst_end2:
	.byte	1                               ; >> Action Record 1 <<
                                        ;   Catch TypeInfo 1
	.byte	0                               ;   No further actions
	.p2align	2
                                        ; >> Catch TypeInfos <<
	.long	0                               ; TypeInfo 1
Lttbase2:
	.p2align	2
                                        ; -- End function
	.section	__TEXT,__text,regular,pure_instructions
	.p2align	2                               ; -- Begin function _ZNSt3__119ostreambuf_iteratorIcNS_11char_traitsIcEEEC1ERNS_13basic_ostreamIcS2_EE
__ZNSt3__119ostreambuf_iteratorIcNS_11char_traitsIcEEEC1ERNS_13basic_ostreamIcS2_EE: ; @_ZNSt3__119ostreambuf_iteratorIcNS_11char_traitsIcEEEC1ERNS_13basic_ostreamIcS2_EE
	.cfi_startproc
; %bb.0:
	sub	sp, sp, #48
	stp	x29, x30, [sp, #32]             ; 16-byte Folded Spill
	add	x29, sp, #32
	.cfi_def_cfa w29, 16
	.cfi_offset w30, -8
	.cfi_offset w29, -16
	stur	x0, [x29, #-8]
	str	x1, [sp, #16]
	ldur	x0, [x29, #-8]
	str	x0, [sp, #8]                    ; 8-byte Folded Spill
	ldr	x1, [sp, #16]
	bl	__ZNSt3__119ostreambuf_iteratorIcNS_11char_traitsIcEEEC2ERNS_13basic_ostreamIcS2_EE
	ldr	x0, [sp, #8]                    ; 8-byte Folded Reload
	ldp	x29, x30, [sp, #32]             ; 16-byte Folded Reload
	add	sp, sp, #48
	ret
	.cfi_endproc
                                        ; -- End function
	.p2align	2                               ; -- Begin function _ZNKSt3__18ios_base5flagsEv
__ZNKSt3__18ios_base5flagsEv:           ; @_ZNKSt3__18ios_base5flagsEv
	.cfi_startproc
; %bb.0:
	sub	sp, sp, #16
	.cfi_def_cfa_offset 16
	str	x0, [sp, #8]
	ldr	x8, [sp, #8]
	ldr	w0, [x8, #8]
	add	sp, sp, #16
	ret
	.cfi_endproc
                                        ; -- End function
	.p2align	2                               ; -- Begin function _ZNKSt3__19basic_iosIcNS_11char_traitsIcEEE4fillEv
__ZNKSt3__19basic_iosIcNS_11char_traitsIcEEE4fillEv: ; @_ZNKSt3__19basic_iosIcNS_11char_traitsIcEEE4fillEv
	.cfi_startproc
; %bb.0:
	sub	sp, sp, #32
	stp	x29, x30, [sp, #16]             ; 16-byte Folded Spill
	add	x29, sp, #16
	.cfi_def_cfa w29, 16
	.cfi_offset w30, -8
	.cfi_offset w29, -16
	str	x0, [sp, #8]
	ldr	x8, [sp, #8]
	str	x8, [sp]                        ; 8-byte Folded Spill
	bl	__ZNSt3__111char_traitsIcE3eofEv
	ldr	x8, [sp]                        ; 8-byte Folded Reload
	ldr	w1, [x8, #144]
	bl	__ZNSt3__111char_traitsIcE11eq_int_typeEii
	tbz	w0, #0, LBB32_2
	b	LBB32_1
LBB32_1:
	ldr	x0, [sp]                        ; 8-byte Folded Reload
	mov	w1, #32
	bl	__ZNKSt3__19basic_iosIcNS_11char_traitsIcEEE5widenEc
	ldr	x9, [sp]                        ; 8-byte Folded Reload
	sxtb	w8, w0
	str	w8, [x9, #144]
	b	LBB32_2
LBB32_2:
	ldr	x8, [sp]                        ; 8-byte Folded Reload
	ldr	w8, [x8, #144]
	sxtb	w0, w8
	ldp	x29, x30, [sp, #16]             ; 16-byte Folded Reload
	add	sp, sp, #32
	ret
	.cfi_endproc
                                        ; -- End function
	.p2align	2                               ; -- Begin function _ZNKSt3__119ostreambuf_iteratorIcNS_11char_traitsIcEEE6failedEv
__ZNKSt3__119ostreambuf_iteratorIcNS_11char_traitsIcEEE6failedEv: ; @_ZNKSt3__119ostreambuf_iteratorIcNS_11char_traitsIcEEE6failedEv
Lfunc_begin3:
	.cfi_startproc
	.cfi_personality 155, ___gxx_personality_v0
	.cfi_lsda 16, Lexception3
; %bb.0:
	sub	sp, sp, #64
	stp	x29, x30, [sp, #48]             ; 16-byte Folded Spill
	add	x29, sp, #48
	.cfi_def_cfa w29, 16
	.cfi_offset w30, -8
	.cfi_offset w29, -16
	stur	x0, [x29, #-8]
	ldur	x8, [x29, #-8]
	ldr	x8, [x8]
	str	x8, [sp]                        ; 8-byte Folded Spill
Ltmp85:
	bl	__ZNSt3__1L15__get_nullptr_tEv
	str	x0, [sp, #8]                    ; 8-byte Folded Spill
Ltmp86:
	b	LBB33_1
LBB33_1:
	ldr	x8, [sp, #8]                    ; 8-byte Folded Reload
	sub	x0, x29, #16
	stur	x8, [x29, #-16]
	bl	__ZNKSt3__19nullptr_tcvPT_INS_15basic_streambufIcNS_11char_traitsIcEEEEEEv
	ldr	x8, [sp]                        ; 8-byte Folded Reload
	subs	x8, x8, x0
	cset	w8, eq
	and	w0, w8, #0x1
	ldp	x29, x30, [sp, #48]             ; 16-byte Folded Reload
	add	sp, sp, #64
	ret
LBB33_2:
Ltmp87:
	mov	x8, x1
	str	x0, [sp, #24]
	str	w8, [sp, #20]
	b	LBB33_3
LBB33_3:
	ldr	x0, [sp, #24]
	bl	___cxa_call_unexpected
Lfunc_end3:
	.cfi_endproc
	.section	__TEXT,__gcc_except_tab
	.p2align	2
GCC_except_table33:
Lexception3:
	.byte	255                             ; @LPStart Encoding = omit
	.byte	155                             ; @TType Encoding = indirect pcrel sdata4
	.uleb128 Lttbase3-Lttbaseref3
Lttbaseref3:
	.byte	1                               ; Call site Encoding = uleb128
	.uleb128 Lcst_end3-Lcst_begin3
Lcst_begin3:
	.uleb128 Ltmp85-Lfunc_begin3            ; >> Call Site 1 <<
	.uleb128 Ltmp86-Ltmp85                  ;   Call between Ltmp85 and Ltmp86
	.uleb128 Ltmp87-Lfunc_begin3            ;     jumps to Ltmp87
	.byte	1                               ;   On action: 1
	.uleb128 Ltmp86-Lfunc_begin3            ; >> Call Site 2 <<
	.uleb128 Lfunc_end3-Ltmp86              ;   Call between Ltmp86 and Lfunc_end3
	.byte	0                               ;     has no landing pad
	.byte	0                               ;   On action: cleanup
Lcst_end3:
	.byte	127                             ; >> Action Record 1 <<
                                        ;   Filter TypeInfo -1
	.byte	0                               ;   No further actions
	.p2align	2
Lttbase3:
                                        ; >> Filter TypeInfos <<
	.byte	0
	.p2align	2
                                        ; -- End function
	.section	__TEXT,__text,regular,pure_instructions
	.p2align	2                               ; -- Begin function _ZNSt3__19basic_iosIcNS_11char_traitsIcEEE8setstateEj
__ZNSt3__19basic_iosIcNS_11char_traitsIcEEE8setstateEj: ; @_ZNSt3__19basic_iosIcNS_11char_traitsIcEEE8setstateEj
	.cfi_startproc
; %bb.0:
	sub	sp, sp, #32
	stp	x29, x30, [sp, #16]             ; 16-byte Folded Spill
	add	x29, sp, #16
	.cfi_def_cfa w29, 16
	.cfi_offset w30, -8
	.cfi_offset w29, -16
	str	x0, [sp, #8]
	str	w1, [sp, #4]
	ldr	x0, [sp, #8]
	ldr	w1, [sp, #4]
	bl	__ZNSt3__18ios_base8setstateEj
	ldp	x29, x30, [sp, #16]             ; 16-byte Folded Reload
	add	sp, sp, #32
	ret
	.cfi_endproc
                                        ; -- End function
	.p2align	2                               ; -- Begin function _ZNSt3__1L15__get_nullptr_tEv
__ZNSt3__1L15__get_nullptr_tEv:         ; @_ZNSt3__1L15__get_nullptr_tEv
	.cfi_startproc
; %bb.0:
	sub	sp, sp, #32
	stp	x29, x30, [sp, #16]             ; 16-byte Folded Spill
	add	x29, sp, #16
	.cfi_def_cfa w29, 16
	.cfi_offset w30, -8
	.cfi_offset w29, -16
	add	x0, sp, #8
	mov	x1, #-1
	bl	__ZNSt3__19nullptr_tC1EMNS0_5__natEi
	ldr	x0, [sp, #8]
	ldp	x29, x30, [sp, #16]             ; 16-byte Folded Reload
	add	sp, sp, #32
	ret
	.cfi_endproc
                                        ; -- End function
	.p2align	2                               ; -- Begin function _ZNKSt3__19nullptr_tcvPT_INS_15basic_streambufIcNS_11char_traitsIcEEEEEEv
__ZNKSt3__19nullptr_tcvPT_INS_15basic_streambufIcNS_11char_traitsIcEEEEEEv: ; @_ZNKSt3__19nullptr_tcvPT_INS_15basic_streambufIcNS_11char_traitsIcEEEEEEv
	.cfi_startproc
; %bb.0:
	sub	sp, sp, #16
	.cfi_def_cfa_offset 16
	str	x0, [sp, #8]
	mov	x0, #0
	add	sp, sp, #16
	ret
	.cfi_endproc
                                        ; -- End function
	.p2align	2                               ; -- Begin function _ZNKSt3__18ios_base5widthEv
__ZNKSt3__18ios_base5widthEv:           ; @_ZNKSt3__18ios_base5widthEv
	.cfi_startproc
; %bb.0:
	sub	sp, sp, #16
	.cfi_def_cfa_offset 16
	str	x0, [sp, #8]
	ldr	x8, [sp, #8]
	ldr	x0, [x8, #24]
	add	sp, sp, #16
	ret
	.cfi_endproc
                                        ; -- End function
	.p2align	2                               ; -- Begin function _ZNSt3__115basic_streambufIcNS_11char_traitsIcEEE5sputnEPKcl
__ZNSt3__115basic_streambufIcNS_11char_traitsIcEEE5sputnEPKcl: ; @_ZNSt3__115basic_streambufIcNS_11char_traitsIcEEE5sputnEPKcl
	.cfi_startproc
; %bb.0:
	sub	sp, sp, #48
	stp	x29, x30, [sp, #32]             ; 16-byte Folded Spill
	add	x29, sp, #32
	.cfi_def_cfa w29, 16
	.cfi_offset w30, -8
	.cfi_offset w29, -16
	stur	x0, [x29, #-8]
	str	x1, [sp, #16]
	str	x2, [sp, #8]
	ldur	x0, [x29, #-8]
	ldr	x1, [sp, #16]
	ldr	x2, [sp, #8]
	ldr	x8, [x0]
	ldr	x8, [x8, #96]
	blr	x8
	ldp	x29, x30, [sp, #32]             ; 16-byte Folded Reload
	add	sp, sp, #48
	ret
	.cfi_endproc
                                        ; -- End function
	.p2align	2                               ; -- Begin function _ZNSt3__112basic_stringIcNS_11char_traitsIcEENS_9allocatorIcEEEC1Emc
__ZNSt3__112basic_stringIcNS_11char_traitsIcEENS_9allocatorIcEEEC1Emc: ; @_ZNSt3__112basic_stringIcNS_11char_traitsIcEENS_9allocatorIcEEEC1Emc
	.cfi_startproc
; %bb.0:
	sub	sp, sp, #48
	stp	x29, x30, [sp, #32]             ; 16-byte Folded Spill
	add	x29, sp, #32
	.cfi_def_cfa w29, 16
	.cfi_offset w30, -8
	.cfi_offset w29, -16
	stur	x0, [x29, #-8]
	str	x1, [sp, #16]
	strb	w2, [sp, #15]
	ldur	x0, [x29, #-8]
	str	x0, [sp]                        ; 8-byte Folded Spill
	ldr	x1, [sp, #16]
	ldrsb	w2, [sp, #15]
	bl	__ZNSt3__112basic_stringIcNS_11char_traitsIcEENS_9allocatorIcEEEC2Emc
	ldr	x0, [sp]                        ; 8-byte Folded Reload
	ldp	x29, x30, [sp, #32]             ; 16-byte Folded Reload
	add	sp, sp, #48
	ret
	.cfi_endproc
                                        ; -- End function
	.p2align	2                               ; -- Begin function _ZNSt3__18ios_base5widthEl
__ZNSt3__18ios_base5widthEl:            ; @_ZNSt3__18ios_base5widthEl
	.cfi_startproc
; %bb.0:
	sub	sp, sp, #32
	.cfi_def_cfa_offset 32
	str	x0, [sp, #24]
	str	x1, [sp, #16]
	ldr	x9, [sp, #24]
	ldr	x8, [x9, #24]
	str	x8, [sp, #8]
	ldr	x8, [sp, #16]
	str	x8, [x9, #24]
	ldr	x0, [sp, #8]
	add	sp, sp, #32
	ret
	.cfi_endproc
                                        ; -- End function
	.p2align	2                               ; -- Begin function _ZNSt3__19nullptr_tC1EMNS0_5__natEi
__ZNSt3__19nullptr_tC1EMNS0_5__natEi:   ; @_ZNSt3__19nullptr_tC1EMNS0_5__natEi
	.cfi_startproc
; %bb.0:
	sub	sp, sp, #48
	stp	x29, x30, [sp, #32]             ; 16-byte Folded Spill
	add	x29, sp, #32
	.cfi_def_cfa w29, 16
	.cfi_offset w30, -8
	.cfi_offset w29, -16
	stur	x0, [x29, #-8]
	str	x1, [sp, #16]
	ldur	x0, [x29, #-8]
	str	x0, [sp, #8]                    ; 8-byte Folded Spill
	ldr	x1, [sp, #16]
	bl	__ZNSt3__19nullptr_tC2EMNS0_5__natEi
	ldr	x0, [sp, #8]                    ; 8-byte Folded Reload
	ldp	x29, x30, [sp, #32]             ; 16-byte Folded Reload
	add	sp, sp, #48
	ret
	.cfi_endproc
                                        ; -- End function
	.p2align	2                               ; -- Begin function _ZNSt3__19nullptr_tC2EMNS0_5__natEi
__ZNSt3__19nullptr_tC2EMNS0_5__natEi:   ; @_ZNSt3__19nullptr_tC2EMNS0_5__natEi
	.cfi_startproc
; %bb.0:
	sub	sp, sp, #16
	.cfi_def_cfa_offset 16
	str	x0, [sp, #8]
	str	x1, [sp]
	ldr	x0, [sp, #8]
                                        ; kill: def $x8 killed $xzr
	str	xzr, [x0]
	add	sp, sp, #16
	ret
	.cfi_endproc
                                        ; -- End function
	.p2align	2                               ; -- Begin function _ZNSt3__112basic_stringIcNS_11char_traitsIcEENS_9allocatorIcEEEC2Emc
__ZNSt3__112basic_stringIcNS_11char_traitsIcEENS_9allocatorIcEEEC2Emc: ; @_ZNSt3__112basic_stringIcNS_11char_traitsIcEENS_9allocatorIcEEEC2Emc
	.cfi_startproc
; %bb.0:
	sub	sp, sp, #48
	stp	x29, x30, [sp, #32]             ; 16-byte Folded Spill
	add	x29, sp, #32
	.cfi_def_cfa w29, 16
	.cfi_offset w30, -8
	.cfi_offset w29, -16
	stur	x0, [x29, #-8]
	str	x1, [sp, #16]
	strb	w2, [sp, #15]
	ldur	x0, [x29, #-8]
	str	x0, [sp]                        ; 8-byte Folded Spill
	add	x1, sp, #14
	add	x2, sp, #13
	bl	__ZNSt3__117__compressed_pairINS_12basic_stringIcNS_11char_traitsIcEENS_9allocatorIcEEE5__repES5_EC1INS_18__default_init_tagESA_EEOT_OT0_
	ldr	x0, [sp]                        ; 8-byte Folded Reload
	ldr	x1, [sp, #16]
	ldrsb	w2, [sp, #15]
	bl	__ZNSt3__112basic_stringIcNS_11char_traitsIcEENS_9allocatorIcEEE6__initEmc
	ldr	x0, [sp]                        ; 8-byte Folded Reload
	ldp	x29, x30, [sp, #32]             ; 16-byte Folded Reload
	add	sp, sp, #48
	ret
	.cfi_endproc
                                        ; -- End function
	.p2align	2                               ; -- Begin function _ZNSt3__119ostreambuf_iteratorIcNS_11char_traitsIcEEEC2ERNS_13basic_ostreamIcS2_EE
__ZNSt3__119ostreambuf_iteratorIcNS_11char_traitsIcEEEC2ERNS_13basic_ostreamIcS2_EE: ; @_ZNSt3__119ostreambuf_iteratorIcNS_11char_traitsIcEEEC2ERNS_13basic_ostreamIcS2_EE
Lfunc_begin4:
	.cfi_startproc
	.cfi_personality 155, ___gxx_personality_v0
	.cfi_lsda 16, Lexception4
; %bb.0:
	sub	sp, sp, #64
	stp	x29, x30, [sp, #48]             ; 16-byte Folded Spill
	add	x29, sp, #48
	.cfi_def_cfa w29, 16
	.cfi_offset w30, -8
	.cfi_offset w29, -16
	stur	x0, [x29, #-8]
	stur	x1, [x29, #-16]
	ldur	x8, [x29, #-8]
	str	x8, [sp]                        ; 8-byte Folded Spill
	ldur	x8, [x29, #-16]
	ldr	x9, [x8]
	ldur	x9, [x9, #-24]
Ltmp92:
	add	x0, x8, x9
	bl	__ZNKSt3__19basic_iosIcNS_11char_traitsIcEEE5rdbufEv
	str	x0, [sp, #8]                    ; 8-byte Folded Spill
Ltmp93:
	b	LBB44_1
LBB44_1:
	ldr	x0, [sp]                        ; 8-byte Folded Reload
	ldr	x8, [sp, #8]                    ; 8-byte Folded Reload
	str	x8, [x0]
	ldp	x29, x30, [sp, #48]             ; 16-byte Folded Reload
	add	sp, sp, #64
	ret
LBB44_2:
Ltmp94:
	mov	x8, x1
	str	x0, [sp, #24]
	str	w8, [sp, #20]
	b	LBB44_3
LBB44_3:
	ldr	x0, [sp, #24]
	bl	___cxa_call_unexpected
Lfunc_end4:
	.cfi_endproc
	.section	__TEXT,__gcc_except_tab
	.p2align	2
GCC_except_table44:
Lexception4:
	.byte	255                             ; @LPStart Encoding = omit
	.byte	155                             ; @TType Encoding = indirect pcrel sdata4
	.uleb128 Lttbase4-Lttbaseref4
Lttbaseref4:
	.byte	1                               ; Call site Encoding = uleb128
	.uleb128 Lcst_end4-Lcst_begin4
Lcst_begin4:
	.uleb128 Ltmp92-Lfunc_begin4            ; >> Call Site 1 <<
	.uleb128 Ltmp93-Ltmp92                  ;   Call between Ltmp92 and Ltmp93
	.uleb128 Ltmp94-Lfunc_begin4            ;     jumps to Ltmp94
	.byte	1                               ;   On action: 1
	.uleb128 Ltmp93-Lfunc_begin4            ; >> Call Site 2 <<
	.uleb128 Lfunc_end4-Ltmp93              ;   Call between Ltmp93 and Lfunc_end4
	.byte	0                               ;     has no landing pad
	.byte	0                               ;   On action: cleanup
Lcst_end4:
	.byte	127                             ; >> Action Record 1 <<
                                        ;   Filter TypeInfo -1
	.byte	0                               ;   No further actions
	.p2align	2
Lttbase4:
                                        ; >> Filter TypeInfos <<
	.byte	0
	.p2align	2
                                        ; -- End function
	.section	__TEXT,__text,regular,pure_instructions
	.p2align	2                               ; -- Begin function _ZNKSt3__19basic_iosIcNS_11char_traitsIcEEE5rdbufEv
__ZNKSt3__19basic_iosIcNS_11char_traitsIcEEE5rdbufEv: ; @_ZNKSt3__19basic_iosIcNS_11char_traitsIcEEE5rdbufEv
	.cfi_startproc
; %bb.0:
	sub	sp, sp, #32
	stp	x29, x30, [sp, #16]             ; 16-byte Folded Spill
	add	x29, sp, #16
	.cfi_def_cfa w29, 16
	.cfi_offset w30, -8
	.cfi_offset w29, -16
	str	x0, [sp, #8]
	ldr	x0, [sp, #8]
	bl	__ZNKSt3__18ios_base5rdbufEv
	ldp	x29, x30, [sp, #16]             ; 16-byte Folded Reload
	add	sp, sp, #32
	ret
	.cfi_endproc
                                        ; -- End function
	.p2align	2                               ; -- Begin function _ZNKSt3__18ios_base5rdbufEv
__ZNKSt3__18ios_base5rdbufEv:           ; @_ZNKSt3__18ios_base5rdbufEv
	.cfi_startproc
; %bb.0:
	sub	sp, sp, #16
	.cfi_def_cfa_offset 16
	str	x0, [sp, #8]
	ldr	x8, [sp, #8]
	ldr	x0, [x8, #40]
	add	sp, sp, #16
	ret
	.cfi_endproc
                                        ; -- End function
	.globl	__ZNSt3__111char_traitsIcE11eq_int_typeEii ; -- Begin function _ZNSt3__111char_traitsIcE11eq_int_typeEii
	.weak_definition	__ZNSt3__111char_traitsIcE11eq_int_typeEii
	.p2align	2
__ZNSt3__111char_traitsIcE11eq_int_typeEii: ; @_ZNSt3__111char_traitsIcE11eq_int_typeEii
	.cfi_startproc
; %bb.0:
	sub	sp, sp, #16
	.cfi_def_cfa_offset 16
	str	w0, [sp, #12]
	str	w1, [sp, #8]
	ldr	w8, [sp, #12]
	ldr	w9, [sp, #8]
	subs	w8, w8, w9
	cset	w8, eq
	and	w0, w8, #0x1
	add	sp, sp, #16
	ret
	.cfi_endproc
                                        ; -- End function
	.globl	__ZNSt3__111char_traitsIcE3eofEv ; -- Begin function _ZNSt3__111char_traitsIcE3eofEv
	.weak_definition	__ZNSt3__111char_traitsIcE3eofEv
	.p2align	2
__ZNSt3__111char_traitsIcE3eofEv:       ; @_ZNSt3__111char_traitsIcE3eofEv
	.cfi_startproc
; %bb.0:
	mov	w0, #-1
	ret
	.cfi_endproc
                                        ; -- End function
	.p2align	2                               ; -- Begin function _ZNKSt3__19basic_iosIcNS_11char_traitsIcEEE5widenEc
__ZNKSt3__19basic_iosIcNS_11char_traitsIcEEE5widenEc: ; @_ZNKSt3__19basic_iosIcNS_11char_traitsIcEEE5widenEc
Lfunc_begin5:
	.cfi_startproc
	.cfi_personality 155, ___gxx_personality_v0
	.cfi_lsda 16, Lexception5
; %bb.0:
	sub	sp, sp, #80
	stp	x29, x30, [sp, #64]             ; 16-byte Folded Spill
	add	x29, sp, #64
	.cfi_def_cfa w29, 16
	.cfi_offset w30, -8
	.cfi_offset w29, -16
	stur	x0, [x29, #-8]
	sturb	w1, [x29, #-9]
	ldur	x0, [x29, #-8]
	sub	x8, x29, #24
	str	x8, [sp, #8]                    ; 8-byte Folded Spill
	bl	__ZNKSt3__18ios_base6getlocEv
	ldr	x0, [sp, #8]                    ; 8-byte Folded Reload
Ltmp97:
	bl	__ZNSt3__1L9use_facetINS_5ctypeIcEEEERKT_RKNS_6localeE
	str	x0, [sp, #16]                   ; 8-byte Folded Spill
Ltmp98:
	b	LBB49_1
LBB49_1:
	ldr	x0, [sp, #16]                   ; 8-byte Folded Reload
	ldursb	w1, [x29, #-9]
Ltmp99:
	bl	__ZNKSt3__15ctypeIcE5widenEc
	str	w0, [sp, #4]                    ; 4-byte Folded Spill
Ltmp100:
	b	LBB49_2
LBB49_2:
	sub	x0, x29, #24
	bl	__ZNSt3__16localeD1Ev
	ldr	w8, [sp, #4]                    ; 4-byte Folded Reload
	sxtb	w0, w8
	ldp	x29, x30, [sp, #64]             ; 16-byte Folded Reload
	add	sp, sp, #80
	ret
LBB49_3:
Ltmp101:
	mov	x8, x1
	str	x0, [sp, #32]
	str	w8, [sp, #28]
Ltmp102:
	sub	x0, x29, #24
	bl	__ZNSt3__16localeD1Ev
Ltmp103:
	b	LBB49_4
LBB49_4:
	b	LBB49_5
LBB49_5:
	ldr	x0, [sp, #32]
	bl	__Unwind_Resume
LBB49_6:
Ltmp104:
	bl	___clang_call_terminate
Lfunc_end5:
	.cfi_endproc
	.section	__TEXT,__gcc_except_tab
	.p2align	2
GCC_except_table49:
Lexception5:
	.byte	255                             ; @LPStart Encoding = omit
	.byte	155                             ; @TType Encoding = indirect pcrel sdata4
	.uleb128 Lttbase5-Lttbaseref5
Lttbaseref5:
	.byte	1                               ; Call site Encoding = uleb128
	.uleb128 Lcst_end5-Lcst_begin5
Lcst_begin5:
	.uleb128 Lfunc_begin5-Lfunc_begin5      ; >> Call Site 1 <<
	.uleb128 Ltmp97-Lfunc_begin5            ;   Call between Lfunc_begin5 and Ltmp97
	.byte	0                               ;     has no landing pad
	.byte	0                               ;   On action: cleanup
	.uleb128 Ltmp97-Lfunc_begin5            ; >> Call Site 2 <<
	.uleb128 Ltmp100-Ltmp97                 ;   Call between Ltmp97 and Ltmp100
	.uleb128 Ltmp101-Lfunc_begin5           ;     jumps to Ltmp101
	.byte	0                               ;   On action: cleanup
	.uleb128 Ltmp100-Lfunc_begin5           ; >> Call Site 3 <<
	.uleb128 Ltmp102-Ltmp100                ;   Call between Ltmp100 and Ltmp102
	.byte	0                               ;     has no landing pad
	.byte	0                               ;   On action: cleanup
	.uleb128 Ltmp102-Lfunc_begin5           ; >> Call Site 4 <<
	.uleb128 Ltmp103-Ltmp102                ;   Call between Ltmp102 and Ltmp103
	.uleb128 Ltmp104-Lfunc_begin5           ;     jumps to Ltmp104
	.byte	1                               ;   On action: 1
	.uleb128 Ltmp103-Lfunc_begin5           ; >> Call Site 5 <<
	.uleb128 Lfunc_end5-Ltmp103             ;   Call between Ltmp103 and Lfunc_end5
	.byte	0                               ;     has no landing pad
	.byte	0                               ;   On action: cleanup
Lcst_end5:
	.byte	1                               ; >> Action Record 1 <<
                                        ;   Catch TypeInfo 1
	.byte	0                               ;   No further actions
	.p2align	2
                                        ; >> Catch TypeInfos <<
	.long	0                               ; TypeInfo 1
Lttbase5:
	.p2align	2
                                        ; -- End function
	.section	__TEXT,__text,regular,pure_instructions
	.p2align	2                               ; -- Begin function _ZNSt3__1L9use_facetINS_5ctypeIcEEEERKT_RKNS_6localeE
__ZNSt3__1L9use_facetINS_5ctypeIcEEEERKT_RKNS_6localeE: ; @_ZNSt3__1L9use_facetINS_5ctypeIcEEEERKT_RKNS_6localeE
	.cfi_startproc
; %bb.0:
	sub	sp, sp, #32
	stp	x29, x30, [sp, #16]             ; 16-byte Folded Spill
	add	x29, sp, #16
	.cfi_def_cfa w29, 16
	.cfi_offset w30, -8
	.cfi_offset w29, -16
	str	x0, [sp, #8]
	ldr	x0, [sp, #8]
	adrp	x1, __ZNSt3__15ctypeIcE2idE@GOTPAGE
	ldr	x1, [x1, __ZNSt3__15ctypeIcE2idE@GOTPAGEOFF]
	bl	__ZNKSt3__16locale9use_facetERNS0_2idE
	ldp	x29, x30, [sp, #16]             ; 16-byte Folded Reload
	add	sp, sp, #32
	ret
	.cfi_endproc
                                        ; -- End function
	.p2align	2                               ; -- Begin function _ZNKSt3__15ctypeIcE5widenEc
__ZNKSt3__15ctypeIcE5widenEc:           ; @_ZNKSt3__15ctypeIcE5widenEc
	.cfi_startproc
; %bb.0:
	sub	sp, sp, #32
	stp	x29, x30, [sp, #16]             ; 16-byte Folded Spill
	add	x29, sp, #16
	.cfi_def_cfa w29, 16
	.cfi_offset w30, -8
	.cfi_offset w29, -16
	str	x0, [sp, #8]
	strb	w1, [sp, #7]
	ldr	x0, [sp, #8]
	ldrsb	w1, [sp, #7]
	ldr	x8, [x0]
	ldr	x8, [x8, #56]
	blr	x8
	sxtb	w0, w0
	ldp	x29, x30, [sp, #16]             ; 16-byte Folded Reload
	add	sp, sp, #32
	ret
	.cfi_endproc
                                        ; -- End function
	.p2align	2                               ; -- Begin function _ZNSt3__18ios_base8setstateEj
__ZNSt3__18ios_base8setstateEj:         ; @_ZNSt3__18ios_base8setstateEj
	.cfi_startproc
; %bb.0:
	sub	sp, sp, #32
	stp	x29, x30, [sp, #16]             ; 16-byte Folded Spill
	add	x29, sp, #16
	.cfi_def_cfa w29, 16
	.cfi_offset w30, -8
	.cfi_offset w29, -16
	str	x0, [sp, #8]
	str	w1, [sp, #4]
	ldr	x0, [sp, #8]
	ldr	w8, [x0, #32]
	ldr	w9, [sp, #4]
	orr	w1, w8, w9
	bl	__ZNSt3__18ios_base5clearEj
	ldp	x29, x30, [sp, #16]             ; 16-byte Folded Reload
	add	sp, sp, #32
	ret
	.cfi_endproc
                                        ; -- End function
	.p2align	2                               ; -- Begin function _ZNSt3__1L12__to_addressIKcEEPT_S3_
__ZNSt3__1L12__to_addressIKcEEPT_S3_:   ; @_ZNSt3__1L12__to_addressIKcEEPT_S3_
	.cfi_startproc
; %bb.0:
	sub	sp, sp, #16
	.cfi_def_cfa_offset 16
	str	x0, [sp, #8]
	ldr	x0, [sp, #8]
	add	sp, sp, #16
	ret
	.cfi_endproc
                                        ; -- End function
	.p2align	2                               ; -- Begin function _ZNKSt3__112basic_stringIcNS_11char_traitsIcEENS_9allocatorIcEEE13__get_pointerEv
__ZNKSt3__112basic_stringIcNS_11char_traitsIcEENS_9allocatorIcEEE13__get_pointerEv: ; @_ZNKSt3__112basic_stringIcNS_11char_traitsIcEENS_9allocatorIcEEE13__get_pointerEv
	.cfi_startproc
; %bb.0:
	sub	sp, sp, #48
	stp	x29, x30, [sp, #32]             ; 16-byte Folded Spill
	add	x29, sp, #32
	.cfi_def_cfa w29, 16
	.cfi_offset w30, -8
	.cfi_offset w29, -16
	stur	x0, [x29, #-8]
	ldur	x0, [x29, #-8]
	str	x0, [sp, #16]                   ; 8-byte Folded Spill
	bl	__ZNKSt3__112basic_stringIcNS_11char_traitsIcEENS_9allocatorIcEEE9__is_longEv
	tbz	w0, #0, LBB54_2
	b	LBB54_1
LBB54_1:
	ldr	x0, [sp, #16]                   ; 8-byte Folded Reload
	bl	__ZNKSt3__112basic_stringIcNS_11char_traitsIcEENS_9allocatorIcEEE18__get_long_pointerEv
	str	x0, [sp, #8]                    ; 8-byte Folded Spill
	b	LBB54_3
LBB54_2:
	ldr	x0, [sp, #16]                   ; 8-byte Folded Reload
	bl	__ZNKSt3__112basic_stringIcNS_11char_traitsIcEENS_9allocatorIcEEE19__get_short_pointerEv
	str	x0, [sp, #8]                    ; 8-byte Folded Spill
	b	LBB54_3
LBB54_3:
	ldr	x0, [sp, #8]                    ; 8-byte Folded Reload
	ldp	x29, x30, [sp, #32]             ; 16-byte Folded Reload
	add	sp, sp, #48
	ret
	.cfi_endproc
                                        ; -- End function
	.p2align	2                               ; -- Begin function _ZNKSt3__112basic_stringIcNS_11char_traitsIcEENS_9allocatorIcEEE9__is_longEv
__ZNKSt3__112basic_stringIcNS_11char_traitsIcEENS_9allocatorIcEEE9__is_longEv: ; @_ZNKSt3__112basic_stringIcNS_11char_traitsIcEENS_9allocatorIcEEE9__is_longEv
	.cfi_startproc
; %bb.0:
	sub	sp, sp, #32
	stp	x29, x30, [sp, #16]             ; 16-byte Folded Spill
	add	x29, sp, #16
	.cfi_def_cfa w29, 16
	.cfi_offset w30, -8
	.cfi_offset w29, -16
	str	x0, [sp, #8]
	ldr	x0, [sp, #8]
	bl	__ZNKSt3__117__compressed_pairINS_12basic_stringIcNS_11char_traitsIcEENS_9allocatorIcEEE5__repES5_E5firstEv
	ldrb	w8, [x0, #23]
                                        ; kill: def $x8 killed $w8
	ands	x8, x8, #0x80
	cset	w8, ne
	and	w0, w8, #0x1
	ldp	x29, x30, [sp, #16]             ; 16-byte Folded Reload
	add	sp, sp, #32
	ret
	.cfi_endproc
                                        ; -- End function
	.p2align	2                               ; -- Begin function _ZNKSt3__112basic_stringIcNS_11char_traitsIcEENS_9allocatorIcEEE18__get_long_pointerEv
__ZNKSt3__112basic_stringIcNS_11char_traitsIcEENS_9allocatorIcEEE18__get_long_pointerEv: ; @_ZNKSt3__112basic_stringIcNS_11char_traitsIcEENS_9allocatorIcEEE18__get_long_pointerEv
	.cfi_startproc
; %bb.0:
	sub	sp, sp, #32
	stp	x29, x30, [sp, #16]             ; 16-byte Folded Spill
	add	x29, sp, #16
	.cfi_def_cfa w29, 16
	.cfi_offset w30, -8
	.cfi_offset w29, -16
	str	x0, [sp, #8]
	ldr	x0, [sp, #8]
	bl	__ZNKSt3__117__compressed_pairINS_12basic_stringIcNS_11char_traitsIcEENS_9allocatorIcEEE5__repES5_E5firstEv
	ldr	x0, [x0]
	ldp	x29, x30, [sp, #16]             ; 16-byte Folded Reload
	add	sp, sp, #32
	ret
	.cfi_endproc
                                        ; -- End function
	.p2align	2                               ; -- Begin function _ZNKSt3__112basic_stringIcNS_11char_traitsIcEENS_9allocatorIcEEE19__get_short_pointerEv
__ZNKSt3__112basic_stringIcNS_11char_traitsIcEENS_9allocatorIcEEE19__get_short_pointerEv: ; @_ZNKSt3__112basic_stringIcNS_11char_traitsIcEENS_9allocatorIcEEE19__get_short_pointerEv
	.cfi_startproc
; %bb.0:
	sub	sp, sp, #32
	stp	x29, x30, [sp, #16]             ; 16-byte Folded Spill
	add	x29, sp, #16
	.cfi_def_cfa w29, 16
	.cfi_offset w30, -8
	.cfi_offset w29, -16
	str	x0, [sp, #8]
	ldr	x0, [sp, #8]
	bl	__ZNKSt3__117__compressed_pairINS_12basic_stringIcNS_11char_traitsIcEENS_9allocatorIcEEE5__repES5_E5firstEv
	bl	__ZNSt3__114pointer_traitsIPKcE10pointer_toERS1_
	ldp	x29, x30, [sp, #16]             ; 16-byte Folded Reload
	add	sp, sp, #32
	ret
	.cfi_endproc
                                        ; -- End function
	.p2align	2                               ; -- Begin function _ZNKSt3__117__compressed_pairINS_12basic_stringIcNS_11char_traitsIcEENS_9allocatorIcEEE5__repES5_E5firstEv
__ZNKSt3__117__compressed_pairINS_12basic_stringIcNS_11char_traitsIcEENS_9allocatorIcEEE5__repES5_E5firstEv: ; @_ZNKSt3__117__compressed_pairINS_12basic_stringIcNS_11char_traitsIcEENS_9allocatorIcEEE5__repES5_E5firstEv
	.cfi_startproc
; %bb.0:
	sub	sp, sp, #32
	stp	x29, x30, [sp, #16]             ; 16-byte Folded Spill
	add	x29, sp, #16
	.cfi_def_cfa w29, 16
	.cfi_offset w30, -8
	.cfi_offset w29, -16
	str	x0, [sp, #8]
	ldr	x0, [sp, #8]
	bl	__ZNKSt3__122__compressed_pair_elemINS_12basic_stringIcNS_11char_traitsIcEENS_9allocatorIcEEE5__repELi0ELb0EE5__getEv
	ldp	x29, x30, [sp, #16]             ; 16-byte Folded Reload
	add	sp, sp, #32
	ret
	.cfi_endproc
                                        ; -- End function
	.p2align	2                               ; -- Begin function _ZNKSt3__122__compressed_pair_elemINS_12basic_stringIcNS_11char_traitsIcEENS_9allocatorIcEEE5__repELi0ELb0EE5__getEv
__ZNKSt3__122__compressed_pair_elemINS_12basic_stringIcNS_11char_traitsIcEENS_9allocatorIcEEE5__repELi0ELb0EE5__getEv: ; @_ZNKSt3__122__compressed_pair_elemINS_12basic_stringIcNS_11char_traitsIcEENS_9allocatorIcEEE5__repELi0ELb0EE5__getEv
	.cfi_startproc
; %bb.0:
	sub	sp, sp, #16
	.cfi_def_cfa_offset 16
	str	x0, [sp, #8]
	ldr	x0, [sp, #8]
	add	sp, sp, #16
	ret
	.cfi_endproc
                                        ; -- End function
	.p2align	2                               ; -- Begin function _ZNSt3__114pointer_traitsIPKcE10pointer_toERS1_
__ZNSt3__114pointer_traitsIPKcE10pointer_toERS1_: ; @_ZNSt3__114pointer_traitsIPKcE10pointer_toERS1_
	.cfi_startproc
; %bb.0:
	sub	sp, sp, #32
	stp	x29, x30, [sp, #16]             ; 16-byte Folded Spill
	add	x29, sp, #16
	.cfi_def_cfa w29, 16
	.cfi_offset w30, -8
	.cfi_offset w29, -16
	str	x0, [sp, #8]
	ldr	x0, [sp, #8]
	bl	__ZNSt3__1L9addressofIKcEEPT_RS2_
	ldp	x29, x30, [sp, #16]             ; 16-byte Folded Reload
	add	sp, sp, #32
	ret
	.cfi_endproc
                                        ; -- End function
	.p2align	2                               ; -- Begin function _ZNSt3__1L9addressofIKcEEPT_RS2_
__ZNSt3__1L9addressofIKcEEPT_RS2_:      ; @_ZNSt3__1L9addressofIKcEEPT_RS2_
	.cfi_startproc
; %bb.0:
	sub	sp, sp, #16
	.cfi_def_cfa_offset 16
	str	x0, [sp, #8]
	ldr	x0, [sp, #8]
	add	sp, sp, #16
	ret
	.cfi_endproc
                                        ; -- End function
	.p2align	2                               ; -- Begin function _ZNKSt3__112basic_stringIcNS_11char_traitsIcEENS_9allocatorIcEEE15__get_long_sizeEv
__ZNKSt3__112basic_stringIcNS_11char_traitsIcEENS_9allocatorIcEEE15__get_long_sizeEv: ; @_ZNKSt3__112basic_stringIcNS_11char_traitsIcEENS_9allocatorIcEEE15__get_long_sizeEv
	.cfi_startproc
; %bb.0:
	sub	sp, sp, #32
	stp	x29, x30, [sp, #16]             ; 16-byte Folded Spill
	add	x29, sp, #16
	.cfi_def_cfa w29, 16
	.cfi_offset w30, -8
	.cfi_offset w29, -16
	str	x0, [sp, #8]
	ldr	x0, [sp, #8]
	bl	__ZNKSt3__117__compressed_pairINS_12basic_stringIcNS_11char_traitsIcEENS_9allocatorIcEEE5__repES5_E5firstEv
	ldr	x0, [x0, #8]
	ldp	x29, x30, [sp, #16]             ; 16-byte Folded Reload
	add	sp, sp, #32
	ret
	.cfi_endproc
                                        ; -- End function
	.p2align	2                               ; -- Begin function _ZNKSt3__112basic_stringIcNS_11char_traitsIcEENS_9allocatorIcEEE16__get_short_sizeEv
__ZNKSt3__112basic_stringIcNS_11char_traitsIcEENS_9allocatorIcEEE16__get_short_sizeEv: ; @_ZNKSt3__112basic_stringIcNS_11char_traitsIcEENS_9allocatorIcEEE16__get_short_sizeEv
	.cfi_startproc
; %bb.0:
	sub	sp, sp, #32
	stp	x29, x30, [sp, #16]             ; 16-byte Folded Spill
	add	x29, sp, #16
	.cfi_def_cfa w29, 16
	.cfi_offset w30, -8
	.cfi_offset w29, -16
	str	x0, [sp, #8]
	ldr	x0, [sp, #8]
	bl	__ZNKSt3__117__compressed_pairINS_12basic_stringIcNS_11char_traitsIcEENS_9allocatorIcEEE5__repES5_E5firstEv
	ldrb	w8, [x0, #23]
	mov	x0, x8
	ldp	x29, x30, [sp, #16]             ; 16-byte Folded Reload
	add	sp, sp, #32
	ret
	.cfi_endproc
                                        ; -- End function
	.globl	__ZNSt3__111char_traitsIcE6lengthEPKc ; -- Begin function _ZNSt3__111char_traitsIcE6lengthEPKc
	.weak_definition	__ZNSt3__111char_traitsIcE6lengthEPKc
	.p2align	2
__ZNSt3__111char_traitsIcE6lengthEPKc:  ; @_ZNSt3__111char_traitsIcE6lengthEPKc
	.cfi_startproc
; %bb.0:
	sub	sp, sp, #32
	stp	x29, x30, [sp, #16]             ; 16-byte Folded Spill
	add	x29, sp, #16
	.cfi_def_cfa w29, 16
	.cfi_offset w30, -8
	.cfi_offset w29, -16
	str	x0, [sp, #8]
	ldr	x0, [sp, #8]
	bl	_strlen
	ldp	x29, x30, [sp, #16]             ; 16-byte Folded Reload
	add	sp, sp, #32
	ret
	.cfi_endproc
                                        ; -- End function
	.p2align	2                               ; -- Begin function _ZNSt3__112basic_stringIcNS_11char_traitsIcEENS_9allocatorIcEEEC2INS_9nullptr_tEEEPKc
__ZNSt3__112basic_stringIcNS_11char_traitsIcEENS_9allocatorIcEEEC2INS_9nullptr_tEEEPKc: ; @_ZNSt3__112basic_stringIcNS_11char_traitsIcEENS_9allocatorIcEEEC2INS_9nullptr_tEEEPKc
	.cfi_startproc
; %bb.0:
	sub	sp, sp, #64
	stp	x29, x30, [sp, #48]             ; 16-byte Folded Spill
	add	x29, sp, #48
	.cfi_def_cfa w29, 16
	.cfi_offset w30, -8
	.cfi_offset w29, -16
	stur	x0, [x29, #-8]
	stur	x1, [x29, #-16]
	ldur	x0, [x29, #-8]
	str	x0, [sp, #16]                   ; 8-byte Folded Spill
	sub	x1, x29, #17
	sub	x2, x29, #18
	bl	__ZNSt3__117__compressed_pairINS_12basic_stringIcNS_11char_traitsIcEENS_9allocatorIcEEE5__repES5_EC1INS_18__default_init_tagESA_EEOT_OT0_
	ldur	x8, [x29, #-16]
	str	x8, [sp, #8]                    ; 8-byte Folded Spill
	ldur	x0, [x29, #-16]
	bl	__ZNSt3__111char_traitsIcE6lengthEPKc
	ldr	x1, [sp, #8]                    ; 8-byte Folded Reload
	mov	x2, x0
	ldr	x0, [sp, #16]                   ; 8-byte Folded Reload
	bl	__ZNSt3__112basic_stringIcNS_11char_traitsIcEENS_9allocatorIcEEE6__initEPKcm
	ldr	x0, [sp, #16]                   ; 8-byte Folded Reload
	ldp	x29, x30, [sp, #48]             ; 16-byte Folded Reload
	add	sp, sp, #64
	ret
	.cfi_endproc
                                        ; -- End function
	.section	__TEXT,__cstring,cstring_literals
l_.str:                                 ; @.str
	.asciz	"brandon"

l_.str.1:                               ; @.str.1
	.asciz	"lala"

l_.str.2:                               ; @.str.2
	.asciz	"kyle"

l_.str.3:                               ; @.str.3
	.asciz	" is "

l_.str.4:                               ; @.str.4
	.asciz	" years old. His birth month is "

.subsections_via_symbols
